; 8051 Disassembler for SiLabs C8051F530 processors.

; Key to reading the assembly:
; Literal values are preceded by #0x
; FLASH locations are preceded by 0x (no #)
; RAM locations are preceded by X
; SFRs are shown as their name.
; Only code that has a valid execution path is decoded.
; Everything else presumed to be data.
; Data returned in hexadecimal and as a character if printable


; Jump Target - Callers: CPU on start up - This is the reset vector
0x0000 02 04 1C   LJMP  0x041C

; Data in FLASH Space
0x0003            0x02
0x0004            0x0C
0x0005            0x03

; Jump Target - Callers: 07AC 
0x0006 7F 01      MOV R7,  #0x01
0x0008 02 00 46   LJMP  0x0046

; Data in FLASH Space
0x000B            0x02
0x000C            0x0C
0x000D            0x06

; Jump Target - Callers: 07AF 
0x000E 7F 06      MOV R7,  #0x06
0x0010 02 00 46   LJMP  0x0046

; Data in FLASH Space
0x0013            0x02
0x0014            0x0C
0x0015            0x09

; Jump Target - Callers: 083C 077E 05D4 05ED 01D8 023A 02E1 062A 0651 
0x0016 7F 79      MOV R7,  #0x79
0x0018 02 0A E9   LJMP  0x0AE9

; Data in FLASH Space
0x001B            0x02
0x001C            0x0C
0x001D            0x0C

; Jump Target - Callers: 07F6 0258 02EF 07BB 0675 09BF 
0x001E 7F 1F      MOV R7,  #0x1F
0x0020 02 0A E9   LJMP  0x0AE9

; Jump Target - Callers: UART Interrupt
0x0023 02 0C 0F   LJMP  0x0C0F 

; Jump Target - Callers: 0B0F 
0x0026 E4         CLR A 
0x0027 F5 D9      MOV  PCAMD, A ;Keep watchdog off
0x0029 22         RET 

; Data in FLASH Space
0x002A            0xFF

; Jump Target - Callers: Timer 2 Overflow Interrupt
0x002B 02 0C 12   LJMP  0x0C12

; Jump Target - Callers: 0B15 
0x002E 75 B2 C7   MOV  OSCICN, #0xC7 ; set OSC ICN to 1100 0111 = Enabled in normal mode, Sysclock is oscillator / 1
0x0031 22         RET 

; Data in FLASH Space
0x0032            0xFF
0x0033            0x02
0x0034            0x0C
0x0035            0x15

; Jump Target - Callers: 0B18    - Routine that just disables global interrupts and returns
0x0036 C2 AF      CLR  IE.7
0x0038 22         RET 

; Data in FLASH Space
0x0039            0xFF
0x003A            0xFF
0x003B            0x02
0x003C            0x0C
0x003D            0x18

; Jump Target - Callers: 0835 
0x003E AF 5C      MOV R7,  X5Ch
0x0040 22         RET 

; Data in FLASH Space
0x0041            0xFF
0x0042            0xFF
0x0043            0x02
0x0044            0x0C
0x0045            0x1B

; Jump Target - Callers: 0008 0010 0BB7 0ABA 0AC1 066E 
0x0046 02 0A E9   LJMP  0x0AE9

; Data in FLASH Space
0x0049            0xFF
0x004A            0xFF
0x004B            0x02
0x004C            0x0C
0x004D            0x1E

; Jump Target - Callers: 0A1C 0A38 0A5D 0A75 080C 0849 
0x004E 8F 61      MOV  X61h, R7
0x0050 22         RET 

; Data in FLASH Space
0x0051            0xFF
0x0052            0xFF
0x0053            0x02
0x0054            0x0C
0x0055            0x21 (!)

; Jump Target - Callers: 053B 05A0 09F1 09E0 
0x0056 8F 68      MOV  X68h, R7
0x0058 22         RET 

; Data in FLASH Space
0x0059            0xFF
0x005A            0xFF
0x005B            0x02
0x005C            0x0C
0x005D            0x24 ($)
0x005E            0xFF
0x005F            0xFF
0x0060            0xFF
0x0061            0xFF
0x0062            0xFF
0x0063            0x02
0x0064            0x0C
0x0065            0x27 (')
0x0066            0xFF
0x0067            0xFF
0x0068            0xFF
0x0069            0xFF
0x006A            0xFF
0x006B            0x02
0x006C            0x0C
0x006D            0x2A (*)
0x006E            0xFF
0x006F            0xFF
0x0070            0xFF
0x0071            0xFF
0x0072            0xFF
0x0073            0x02
0x0074            0x0C
0x0075            0x2D (-)
0x0076            0xFF
0x0077            0xFF
0x0078            0xFF
0x0079            0xFF
0x007A            0xFF
0x007B            0x02
0x007C            0x0C
0x007D            0x30 (0)
0x007E            0xFF
0x007F            0xFF
0x0080            0xFF
0x0081            0xFF
0x0082            0xFF
0x0083            0x02
0x0084            0x0C
0x0085            0x33 (3)
0x0086            0xFF
0x0087            0xFF
0x0088            0xFF
0x0089            0xFF
0x008A            0xFF
0x008B            0x02
0x008C            0x0C
0x008D            0x36 (6)

; Jump Target - Callers: 05F6 06A6 0856 0861 
0x008E BB 01 06   CJNE R3,  #0x01, 0x0097
0x0091 89 82      MOV  DPL, R1
0x0093 8A 83      MOV  DPH, R2
0x0095 E0         MOVX A, @DPTR 
0x0096 22         RET 

; Jump Target - Callers: 008E 
0x0097 50 02      JNC  0x009B
0x0099 E7         MOV A, @R1 
0x009A 22         RET 

; Jump Target - Callers: 0097 
0x009B BB FE 02   CJNE R3,  #0xFE, 0x00A0
0x009E E3         MOVX, A, @R1 
0x009F 22         RET 

; Jump Target - Callers: 009B 
0x00A0 89 82      MOV  DPL, R1
0x00A2 8A 83      MOV  DPH, R2
0x00A4 E4         CLR A 
0x00A5 93         MOVC A, @A+DPTR 
0x00A6 22         RET 

; Jump Target - Callers: 060D 06A0 0B27 02C3 
0x00A7 BB 01 0C   CJNE R3,  #0x01, 0x00B6
0x00AA E5 82      MOV A,  DPL
0x00AC 29         ADD A, R1 
0x00AD F5 82      MOV  DPL, A
0x00AF E5 83      MOV A,  DPH
0x00B1 3A         ADDC A, R2 
0x00B2 F5 83      MOV  DPH, A
0x00B4 E0         MOVX A, @DPTR 
0x00B5 22         RET 

; Jump Target - Callers: 00A7 
0x00B6 50 06      JNC  0x00BE
0x00B8 E9         MOV A, R1 
0x00B9 25 82      ADD A,  DPL
0x00BB F8         MOV R0, A 
0x00BC E6         MOV A, @R0 
0x00BD 22         RET 

; Jump Target - Callers: 00B6 
0x00BE BB FE 06   CJNE R3,  #0xFE, 0x00C7
0x00C1 E9         MOV A, R1 
0x00C2 25 82      ADD A,  DPL
0x00C4 F8         MOV R0, A 
0x00C5 E2         MOVX, A, @R0 
0x00C6 22         RET 

; Jump Target - Callers: 00BE 
0x00C7 E5 82      MOV A,  DPL
0x00C9 29         ADD A, R1 
0x00CA F5 82      MOV  DPL, A
0x00CC E5 83      MOV A,  DPH
0x00CE 3A         ADDC A, R2 
0x00CF F5 83      MOV  DPH, A
0x00D1 E4         CLR A 
0x00D2 93         MOVC A, @A+DPTR 
0x00D3 22         RET 

; Jump Target - Callers: 0717 0804 0601 0618 
0x00D4 BB 01 06   CJNE R3,  #0x01, 0x00DD
0x00D7 89 82      MOV  DPL, R1
0x00D9 8A 83      MOV  DPH, R2
0x00DB F0         MOVX @DPTR, A 
0x00DC 22         RET 

; Jump Target - Callers: 00D4 
0x00DD 50 02      JNC  0x00E1
0x00DF F7         MOV @R1, A 
0x00E0 22         RET 

; Jump Target - Callers: 00DD 
0x00E1 BB FE 01   CJNE R3,  #0xFE, 0x00E5
0x00E4 F3         MOVX @R1, A 

; Jump Target - Callers: 00E1 
0x00E5 22         RET 

; Jump Target - Callers: 06C0 
0x00E6 BB 01 0A   CJNE R3,  #0x01, 0x00F3
0x00E9 89 82      MOV  DPL, R1
0x00EB 8A 83      MOV  DPH, R2
0x00ED E0         MOVX A, @DPTR 
0x00EE F5 F0      MOV  B, A
0x00F0 A3         INC DPTR 
0x00F1 E0         MOVX A, @DPTR 
0x00F2 22         RET 

; Jump Target - Callers: 00E6 
0x00F3 50 06      JNC  0x00FB
0x00F5 87 F0      MOV  B, @R1
0x00F7 09         INC R1 
0x00F8 E7         MOV A, @R1 
0x00F9 19         DEC R1 
0x00FA 22         RET 

; Jump Target - Callers: 00F3 
0x00FB BB FE 07   CJNE R3,  #0xFE, 0x0105
0x00FE E3         MOVX, A, @R1 
0x00FF F5 F0      MOV  B, A
0x0101 09         INC R1 
0x0102 E3         MOVX, A, @R1 
0x0103 19         DEC R1 
0x0104 22         RET 

; Jump Target - Callers: 00FB 
0x0105 89 82      MOV  DPL, R1
0x0107 8A 83      MOV  DPH, R2
0x0109 E4         CLR A 
0x010A 93         MOVC A, @A+DPTR 
0x010B F5 F0      MOV  B, A
0x010D 74 01      MOV A,  #0x01
0x010F 93         MOVC A, @A+DPTR 
0x0110 22         RET 

; Jump Target - Callers: 06B7 
0x0111 BB 01 0A   CJNE R3,  #0x01, 0x011E
0x0114 89 82      MOV  DPL, R1
0x0116 8A 83      MOV  DPH, R2
0x0118 F0         MOVX @DPTR, A 
0x0119 E5 F0      MOV A,  B
0x011B A3         INC DPTR 
0x011C F0         MOVX @DPTR, A 
0x011D 22         RET 

; Jump Target - Callers: 0111 
0x011E 50 06      JNC  0x0126
0x0120 F7         MOV @R1, A 
0x0121 09         INC R1 
0x0122 A7 F0      MOV @R1,  B
0x0124 19         DEC R1 
0x0125 22         RET 

; Jump Target - Callers: 011E 
0x0126 BB FE 06   CJNE R3,  #0xFE, 0x012F
0x0129 F3         MOVX @R1, A 
0x012A E5 F0      MOV A,  B
0x012C 09         INC R1 
0x012D F3         MOVX @R1, A 
0x012E 19         DEC R1 

; Jump Target - Callers: 0126 
0x012F 22         RET 

; Jump Target - Callers: 0BA2 0702 
0x0130 EB         MOV A, R3 
0x0131 9F         SUBB A, R7 
0x0132 F5 F0      MOV  B, A
0x0134 EA         MOV A, R2 
0x0135 9E         SUBB A, R6 
0x0136 42 F0      ORL  B, A
0x0138 E9         MOV A, R1 
0x0139 9D         SUBB A, R5 
0x013A 42 F0      ORL  B, A
0x013C E8         MOV A, R0 
0x013D 9C         SUBB A, R4 
0x013E 45 F0      ORL A,  B
0x0140 22         RET 

; Jump Target - Callers: 0376 
0x0141 BB 01 1A   CJNE R3,  #0x01, 0x015E
0x0144 89 82      MOV  DPL, R1
0x0146 8A 83      MOV  DPH, R2
0x0148 D0 F0      POP  B
0x014A D0 E0      POP  ACC
0x014C F8         MOV R0, A 
0x014D D0 E0      POP  ACC
0x014F F9         MOV R1, A 
0x0150 D0 E0      POP  ACC
0x0152 FA         MOV R2, A 
0x0153 D0 E0      POP  ACC
0x0155 FB         MOV R3, A 
0x0156 E8         MOV A, R0 
0x0157 C0 E0      PUSH  ACC
0x0159 C0 F0      PUSH  B
0x015B 02 01 9F   LJMP  0x019F

; Jump Target - Callers: 0141 
0x015E 50 16      JNC  0x0176
0x0160 E9         MOV A, R1 
0x0161 F8         MOV R0, A 
0x0162 D0 83      POP  DPH
0x0164 D0 82      POP  DPL
0x0166 D0 E0      POP  ACC
0x0168 F9         MOV R1, A 
0x0169 D0 E0      POP  ACC
0x016B FA         MOV R2, A 
0x016C D0 E0      POP  ACC
0x016E FB         MOV R3, A 
0x016F C0 82      PUSH  DPL
0x0171 C0 83      PUSH  DPH
0x0173 02 01 96   LJMP  0x0196

; Jump Target - Callers: 015E 
0x0176 BB FE 16   CJNE R3,  #0xFE, 0x018F
0x0179 E9         MOV A, R1 
0x017A F8         MOV R0, A 
0x017B D0 83      POP  DPH
0x017D D0 82      POP  DPL
0x017F D0 E0      POP  ACC
0x0181 F9         MOV R1, A 
0x0182 D0 E0      POP  ACC
0x0184 FA         MOV R2, A 
0x0185 D0 E0      POP  ACC
0x0187 FB         MOV R3, A 
0x0188 C0 82      PUSH  DPL
0x018A C0 83      PUSH  DPH
0x018C 02 01 A8   LJMP  0x01A8

; Jump Target - Callers: 0176 
0x018F 22         RET 

; Jump Target - Callers: 0A56 
0x0190 8A 83      MOV  DPH, R2
0x0192 89 82      MOV  DPL, R1
0x0194 E4         CLR A 
0x0195 73         JMP @A+DPTR 

; Jump Target - Callers: 0173 
0x0196 EB         MOV A, R3 
0x0197 F6         MOV @R0, A 
0x0198 08         INC R0 
0x0199 EA         MOV A, R2 
0x019A F6         MOV @R0, A 
0x019B 08         INC R0 
0x019C E9         MOV A, R1 
0x019D F6         MOV @R0, A 
0x019E 22         RET 

; Jump Target - Callers: 015B 
0x019F EB         MOV A, R3 
0x01A0 F0         MOVX @DPTR, A 
0x01A1 A3         INC DPTR 
0x01A2 EA         MOV A, R2 
0x01A3 F0         MOVX @DPTR, A 
0x01A4 A3         INC DPTR 
0x01A5 E9         MOV A, R1 
0x01A6 F0         MOVX @DPTR, A 
0x01A7 22         RET 

; Jump Target - Callers: 018C 
0x01A8 EB         MOV A, R3 
0x01A9 F2         MOVX @R0, A 
0x01AA 08         INC R0 
0x01AB EA         MOV A, R2 
0x01AC F2         MOVX @R0, A 
0x01AD 08         INC R0 
0x01AE E9         MOV A, R1 
0x01AF F2         MOVX @R0, A 
0x01B0 22         RET 

; Jump Target - Callers: 07A9 
0x01B1 E4         CLR A 
0x01B2 F5 10      MOV  X10h, A
0x01B4 F5 11      MOV  X11h, A
0x01B6 F5 16      MOV  X16h, A
0x01B8 75 17 00   MOV  X17h, #0x00
0x01BB 75 18 11   MOV  X18h, #0x11
0x01BE FB         MOV R3, A 
0x01BF 7A 00      MOV R2,  #0x00
0x01C1 79 10      MOV R1,  #0x10
0x01C3 12 05 B7   LCALL  0x05B7
0x01C6 EF         MOV A, R7 
0x01C7 70 03      JNZ  0x01CC
0x01C9 02 02 53   LJMP  0x0253

; Jump Target - Callers: 01C7 
0x01CC 7B 00      MOV R3,  #0x00
0x01CE 7A 00      MOV R2,  #0x00
0x01D0 79 0A      MOV R1,  #0x0A
0x01D2 12 06 79   LCALL  0x0679
0x01D5 EF         MOV A, R7 
0x01D6 60 7B      JZ  0x0253
0x01D8 12 00 16   LCALL  0x0016
0x01DB 7B 00      MOV R3,  #0x00
0x01DD 7A 00      MOV R2,  #0x00
0x01DF 79 0C      MOV R1,  #0x0C
0x01E1 7F 00      MOV R7,  #0x00
0x01E3 7E 00      MOV R6,  #0x00
0x01E5 7D 00      MOV R5,  #0x00
0x01E7 7C 00      MOV R4,  #0x00
0x01E9 12 09 F7   LCALL  0x09F7
0x01EC EF         MOV A, R7 
0x01ED 64 01      XRL A,  #0x01
0x01EF 70 62      JNZ  0x0253
0x01F1 FB         MOV R3, A 
0x01F2 7A 00      MOV R2,  #0x00
0x01F4 79 0D      MOV R1,  #0x0D
0x01F6 75 24 40   MOV  X24h, #0x40
0x01F9 75 23 28   MOV  X23h, #0x28
0x01FC 75 22 BA   MOV  X22h, #0xBA
0x01FF F5 21      MOV  X21h, A
0x0201 12 08 D7   LCALL  0x08D7
0x0204 85 0C 29   MOV  X29h, X0Ch
0x0207 AD 0C      MOV R5,  X0Ch
0x0209 12 02 F3   LCALL  0x02F3
0x020C 8F 12      MOV  X12h, R7
0x020E E5 12      MOV A,  X12h
0x0210 B4 01 2A   CJNE A,  #0x01, 0x023D
0x0213 75 16 00   MOV  X16h, #0x00
0x0216 75 17 00   MOV  X17h, #0x00
0x0219 75 18 11   MOV  X18h, #0x11
0x021C 85 0A 19   MOV  X19h, X0Ah
0x021F 85 0B 1A   MOV  X1Ah, X0Bh
0x0222 85 0D 1B   MOV  X1Bh, X0Dh
0x0225 85 0E 1C   MOV  X1Ch, X0Eh
0x0228 85 0F 1D   MOV  X1Dh, X0Fh
0x022B 85 0C 1E   MOV  X1Eh, X0Ch
0x022E 7B 00      MOV R3,  #0x00
0x0230 7A 00      MOV R2,  #0x00
0x0232 79 10      MOV R1,  #0x10
0x0234 12 03 89   LCALL  0x0389
0x0237 BF 02 19   CJNE R7,  #0x02, 0x0253
0x023A 02 00 16   LJMP  0x0016

; Jump Target - Callers: 0210 
0x023D E5 12      MOV A,  X12h
0x023F B4 04 11   CJNE A,  #0x04, 0x0253
0x0242 75 17 40   MOV  X17h, #0x40
0x0245 75 16 28   MOV  X16h, #0x28
0x0248 75 15 BA   MOV  X15h, #0xBA
0x024B 75 14 00   MOV  X14h, #0x00
0x024E AF 0C      MOV R7,  X0Ch
0x0250 12 09 52   LCALL  0x0952

; Jump Target - Callers: 01D6 01EF 023F 0237 01C9 
0x0253 E4         CLR A 
0x0254 F5 10      MOV  X10h, A
0x0256 F5 11      MOV  X11h, A
0x0258 12 00 1E   LCALL  0x001E
0x025B 22         RET 

; Jump Target - Callers: 07A6 
0x025C E4         CLR A 
0x025D F5 0E      MOV  X0Eh, A
0x025F F5 0F      MOV  X0Fh, A
0x0261 F5 16      MOV  X16h, A
0x0263 75 17 00   MOV  X17h, #0x00
0x0266 75 18 0F   MOV  X18h, #0x0F
0x0269 FB         MOV R3, A 
0x026A 7A 00      MOV R2,  #0x00
0x026C 79 0E      MOV R1,  #0x0E
0x026E 12 05 B7   LCALL  0x05B7
0x0271 EF         MOV A, R7 
0x0272 60 76      JZ  0x02EA
0x0274 7B 00      MOV R3,  #0x00
0x0276 7A 00      MOV R2,  #0x00
0x0278 79 0A      MOV R1,  #0x0A
0x027A 12 08 EF   LCALL  0x08EF
0x027D 7C 00      MOV R4,  #0x00
0x027F 12 09 F7   LCALL  0x09F7
0x0282 EF         MOV A, R7 
0x0283 64 01      XRL A,  #0x01
0x0285 70 63      JNZ  0x02EA
0x0287 E5 0A      MOV A,  X0Ah
0x0289 C3         CLR C 
0x028A 94 0A      SUBB A,  #0x0A
0x028C 50 5C      JNC  0x02EA
0x028E 7A 00      MOV R2,  #0x00
0x0290 79 0B      MOV R1,  #0x0B
0x0292 12 08 C8   LCALL  0x08C8
0x0295 85 0A 29   MOV  X29h, X0Ah
0x0298 AD 0A      MOV R5,  X0Ah
0x029A 12 02 F3   LCALL  0x02F3
0x029D EF         MOV A, R7 
0x029E 64 01      XRL A,  #0x01
0x02A0 70 48      JNZ  0x02EA
0x02A2 75 11 01   MOV  X11h, #0x01
0x02A5 F5 10      MOV  X10h, A

; Jump Target - Callers: 02DB 
0x02A7 E5 10      MOV A,  X10h
0x02A9 C3         CLR C 
0x02AA 95 0A      SUBB A,  X0Ah
0x02AC 50 2F      JNC  0x02DD
0x02AE 75 15 00   MOV  X15h, #0x00
0x02B1 75 16 00   MOV  X16h, #0x00
0x02B4 75 17 0F   MOV  X17h, #0x0F
0x02B7 AB 0B      MOV R3,  X0Bh
0x02B9 AA 0C      MOV R2,  X0Ch
0x02BB A9 0D      MOV R1,  X0Dh
0x02BD 85 10 82   MOV  DPL, X10h
0x02C0 75 83 00   MOV  DPH, #0x00
0x02C3 12 00 A7   LCALL  0x00A7
0x02C6 F5 18      MOV  X18h, A
0x02C8 7B 00      MOV R3,  #0x00
0x02CA 7A 00      MOV R2,  #0x00
0x02CC 79 0E      MOV R1,  #0x0E
0x02CE 12 08 8B   LCALL  0x088B
0x02D1 EF         MOV A, R7 
0x02D2 64 01      XRL A,  #0x01
0x02D4 60 03      JZ  0x02D9
0x02D6 E4         CLR A 
0x02D7 F5 11      MOV  X11h, A

; Jump Target - Callers: 02D4 
0x02D9 05 10      INC  X10h
0x02DB 80 CA      SJMP  0x02A7

; Jump Target - Callers: 02AC 
0x02DD E5 11      MOV A,  X11h
0x02DF 60 09      JZ  0x02EA
0x02E1 12 00 16   LCALL  0x0016
0x02E4 E4         CLR A 
0x02E5 F5 0E      MOV  X0Eh, A
0x02E7 F5 0F      MOV  X0Fh, A
0x02E9 22         RET 

; Jump Target - Callers: 0272 0285 028C 02A0 02DF 
0x02EA E4         CLR A 
0x02EB F5 0E      MOV  X0Eh, A
0x02ED F5 0F      MOV  X0Fh, A
0x02EF 12 00 1E   LCALL  0x001E
0x02F2 22         RET 

; Jump Target - Callers: 05E2 068C 0209 029A 
0x02F3 8B 1D      MOV  X1Dh, R3
0x02F5 8A 1E      MOV  X1Eh, R2
0x02F7 89 1F      MOV  X1Fh, R1
0x02F9 8D 20      MOV  X20h, R5
0x02FB 85 29 2C   MOV  X2Ch, X29h
0x02FE E5 20      MOV A,  X20h
0x0300 24 01      ADD A,  #0x01
0x0302 FF         MOV R7, A 
0x0303 E4         CLR A 
0x0304 33         RLC A 
0x0305 FE         MOV R6, A 
0x0306 D3         SETB C 
0x0307 EF         MOV A, R7 
0x0308 94 20      SUBB A,  #0x20
0x030A EE         MOV A, R6 
0x030B 94 00      SUBB A,  #0x00
0x030D 40 03      JC  0x0312
0x030F 7F 04      MOV R7,  #0x04
0x0311 22         RET 

; Jump Target - Callers: 030D 
0x0312 AF 24      MOV R7,  X24h
0x0314 AE 23      MOV R6,  X23h
0x0316 AD 22      MOV R5,  X22h
0x0318 AC 21      MOV R4,  X21h
0x031A 12 03 7C   LCALL  0x037C
0x031D 60 03      JZ  0x0322
0x031F 7F 02      MOV R7,  #0x02
0x0321 22         RET 

; Jump Target - Callers: 031D 
0x0322 85 2B 3C   MOV  X3Ch, X2Bh   ;copy RAM 0x2B (Tx Flag) to RAM 0x3C
0x0325 E5 29      MOV A,  X29h      ;Load accum with value from RAM 0x29
0x0327 65 2B      XRL A,  X2Bh      ;XOR that with RAM 0x2B (TX Flag)
0x0329 F5 2C      MOV  X2Ch, A      ;Store result into RAM 0x2C
0x032B 75 2A 01   MOV  X2Ah, #0x01  ;Set RAM 0x2A to 1 (2A is where byte received from UART is stored)

; Jump Target - Callers: 035B 
0x032E E5 20      MOV A,  X20h      ;Copy value from RAM 0x20 to Accum
0x0330 24 01      ADD A,  #0x01     ;Add one to it
0x0332 FF         MOV R7, A         ;Store it in R7
0x0333 E4         CLR A             ;Clear accum
0x0334 33         RLC A             ;Rotate accum left one - In this case, rotate Carry flag into accum
0x0335 FE         MOV R6, A         ;Store accum into R6 (R6 is now value from carry flag)
0x0336 C3         CLR C             ;Clear the carry flag
0x0337 E5 2A      MOV A,  X2Ah      ;Get value from RAM 0x2A (UART rx'd char) and store to accum
0x0339 9F         SUBB A, R7        ;Subtract R7 from Accum (because of next clear this is used just to influence carry flag)
0x033A E4         CLR A             ;Clear accumulator (carry flag still set if R7 was larger than accum)
0x033B 9E         SUBB A, R6        ;Subtract R6 from newly cleared accum. Carry flag is part of this though.
0x033C 50 1F      JNC  0x035D       ;Branch if carry not set (Only if value from RAM 0x2A was larger than R7 and R6 was zero?)
0x033E AF 28      MOV R7,  X28h     
0x0340 AE 27      MOV R6,  X27h     
0x0342 AD 26      MOV R5,  X26h     
0x0344 AC 25      MOV R4,  X25h     
0x0346 12 03 7C   LCALL  0x037C     ;call not jump so code returns to next line
0x0349 60 03      JZ  0x034E        ;if call resulted in accum being zero then branch
0x034B 7F 02      MOV R7,  #0x02    ;Otherwise set R7 to 2 and return
0x034D 22         RET 

; Jump Target - Callers: 0349       ;call above returned zero so do this.
0x034E 74 3C      MOV A,  #0x3C     
0x0350 25 2A      ADD A,  X2Ah
0x0352 F8         MOV R0, A 
0x0353 A6 2B      MOV @R0,  X2Bh
0x0355 E5 2B      MOV A,  X2Bh
0x0357 62 2C      XRL  X2Ch, A
0x0359 05 2A      INC  X2Ah
0x035B 80 D1      SJMP  0x032E

; Jump Target - Callers: 033C 
0x035D E5 2C      MOV A,  X2Ch      ; Grab RAM 0x2C (flag to set whether to forward bytes on UART)
0x035F 60 03      JZ  0x0364        ; Jump if accum is zero (if we're not forwarding bytes on UART)
0x0361 7F 03      MOV R7,  #0x03    ; Otherwise, set R7 to 3 and return
0x0363 22         RET 

; Jump Target - Callers: 035F 
0x0364 7B 00      MOV R3,  #0x00
0x0366 7A 00      MOV R2,  #0x00
0x0368 79 3C      MOV R1,  #0x3C
0x036A C0 03      PUSH  X03h        ;R3
0x036C C0 02      PUSH  X02h        ;R2
0x036E C0 01      PUSH  X01h        ;R1
0x0370 AB 1D      MOV R3,  X1Dh
0x0372 AA 1E      MOV R2,  X1Eh
0x0374 A9 1F      MOV R1,  X1Fh
0x0376 12 01 41   LCALL  0x0141
0x0379 7F 01      MOV R7,  #0x01    ;Set R7 to 1 and return
0x037B 22         RET 

; Jump Target - Callers: 031A 0346 
0x037C 7B 00      MOV R3,  #0x00
0x037E 7A 00      MOV R2,  #0x00
0x0380 79 2B      MOV R1,  #0x2B
0x0382 12 09 F7   LCALL  0x09F7
0x0385 EF         MOV A, R7 
0x0386 64 01      XRL A,  #0x01
0x0388 22         RET 

; Jump Target - Callers: 0234 
0x0389 8B 13      MOV  X13h, R3
0x038B 8A 14      MOV  X14h, R2
0x038D 89 15      MOV  X15h, R1
0x038F E4         CLR A 
0x0390 F5 1F      MOV  X1Fh, A

; Jump Target - Callers: 03C4 
0x0392 E5 19      MOV A,  X19h
0x0394 C3         CLR C 
0x0395 13         RRC A 
0x0396 FF         MOV R7, A 
0x0397 E5 1F      MOV A,  X1Fh
0x0399 90 0B E5   MOV DPTR,  #0x0BE5
0x039C 93         MOVC A, @A+DPTR 
0x039D FD         MOV R5, A 
0x039E 7C 00      MOV R4,  #0x00
0x03A0 6F         XRL A, R7 
0x03A1 70 01      JNZ  0x03A4
0x03A3 E4         CLR A 

; Jump Target - Callers: 03A1 
0x03A4 60 17      JZ  0x03BD
0x03A6 AF 1E      MOV R7,  X1Eh
0x03A8 7E 00      MOV R6,  #0x00
0x03AA E5 1A      MOV A,  X1Ah
0x03AC 25 1E      ADD A,  X1Eh
0x03AE CF         XCH A, R7 
0x03AF EE         MOV A, R6 
0x03B0 35 19      ADDC A,  X19h
0x03B2 CF         XCH A, R7 
0x03B3 24 FF      ADD A,  #0xFF
0x03B5 CF         XCH A, R7 
0x03B6 34 FF      ADDC A,  #0xFF
0x03B8 C3         CLR C 
0x03B9 13         RRC A 
0x03BA B5 05 03   CJNE A,  X05h, 0x03C0

; Jump Target - Callers: 03A4 
0x03BD 7F 03      MOV R7,  #0x03
0x03BF 22         RET 

; Jump Target - Callers: 03BA 
0x03C0 05 1F      INC  X1Fh
0x03C2 E5 1F      MOV A,  X1Fh
0x03C4 B4 07 CB   CJNE A,  #0x07, 0x0392
0x03C7 E4         CLR A 
0x03C8 F5 1F      MOV  X1Fh, A

; Jump Target - Callers: 0417 
0x03CA E5 1F      MOV A,  X1Fh
0x03CC C3         CLR C 
0x03CD 95 1E      SUBB A,  X1Eh
0x03CF 50 48      JNC  0x0419
0x03D1 85 16 23   MOV  X23h, X16h
0x03D4 85 17 24   MOV  X24h, X17h
0x03D7 85 18 25   MOV  X25h, X18h
0x03DA 7E 00      MOV R6,  #0x00
0x03DC E5 1A      MOV A,  X1Ah
0x03DE 25 1F      ADD A,  X1Fh
0x03E0 F5 27      MOV  X27h, A
0x03E2 EE         MOV A, R6 
0x03E3 35 19      ADDC A,  X19h
0x03E5 F5 26      MOV  X26h, A
0x03E7 12 0B 1B   LCALL  0x0B1B
0x03EA F5 28      MOV  X28h, A
0x03EC 75 29 01   MOV  X29h, #0x01
0x03EF AB 13      MOV R3,  X13h
0x03F1 AA 14      MOV R2,  X14h
0x03F3 A9 15      MOV R1,  X15h
0x03F5 12 09 7E   LCALL  0x097E
0x03F8 EF         MOV A, R7 
0x03F9 70 03      JNZ  0x03FE
0x03FB 7F 03      MOV R7,  #0x03
0x03FD 22         RET 

; Jump Target - Callers: 03F9 
0x03FE 7E 00      MOV R6,  #0x00
0x0400 E5 1A      MOV A,  X1Ah
0x0402 25 1F      ADD A,  X1Fh
0x0404 FF         MOV R7, A 
0x0405 EE         MOV A, R6 
0x0406 35 19      ADDC A,  X19h
0x0408 FE         MOV R6, A 
0x0409 12 0B 78   LCALL  0x0B78
0x040C 12 0B 1B   LCALL  0x0B1B
0x040F 6F         XRL A, R7 
0x0410 60 03      JZ  0x0415
0x0412 7F 03      MOV R7,  #0x03
0x0414 22         RET 

; Jump Target - Callers: 0410 
0x0415 05 1F      INC  X1Fh
0x0417 80 B1      SJMP  0x03CA

; Jump Target - Callers: 03CF 
0x0419 7F 02      MOV R7,  #0x02
0x041B 22         RET 

; Jump Target - Callers: Reset Vector - Code starts here.
0x041C 78 7F      MOV R0,  #0x7F    ;set R0 to 0x7F
0x041E E4         CLR A             ;Clear accum

; Jump Target - Callers: 0420 
0x041F F6         MOV @R0, A        ;Write 0 out to memory pointed to by R0
0x0420 D8 FD      DJNZ R0,  0x041F  ;keep looping, clearing memory from 0x7F to 0
0x0422 75 81 69   MOV  SP, #0x69    ;Set Stack pointer to 0x69
0x0425 02 04 63   LJMP  0x0463      ;Call hardware init code

; Jump Target - Callers: 046A 
0x0428 02 0A FB   LJMP  0x0AFB

; Jump Target - Callers: 0481 
0x042B E4         CLR A 
0x042C 93         MOVC A, @A+DPTR 
0x042D A3         INC DPTR 
0x042E F8         MOV R0, A 

; Jump Target - Callers: 0439 
0x042F E4         CLR A 
0x0430 93         MOVC A, @A+DPTR 
0x0431 A3         INC DPTR 
0x0432 40 03      JC  0x0437
0x0434 F6         MOV @R0, A 
0x0435 80 01      SJMP  0x0438

; Jump Target - Callers: 0432 
0x0437 F2         MOVX @R0, A 

; Jump Target - Callers: 0435 
0x0438 08         INC R0 
0x0439 DF F4      DJNZ R7,  0x042F
0x043B 80 29      SJMP  0x0466

; Jump Target - Callers: 0483 0457 
0x043D E4         CLR A 
0x043E 93         MOVC A, @A+DPTR 
0x043F A3         INC DPTR 
0x0440 F8         MOV R0, A 
0x0441 54 07      ANL A,  #0x07
0x0443 24 0C      ADD A,  #0x0C
0x0445 C8         XCH A, R0 
0x0446 C3         CLR C 
0x0447 33         RLC A 
0x0448 C4         SWAP A 
0x0449 54 0F      ANL A,  #0x0F
0x044B 44 20      ORL A,  #0x20
0x044D C8         XCH A, R0 
0x044E 83         MOVC A, @A+PC 
0x044F 40 04      JC  0x0455
0x0451 F4         CPL A 
0x0452 56         ANL A, @R0 
0x0453 80 01      SJMP  0x0456

; Jump Target - Callers: 044F 
0x0455 46         ORL A, @R0 

; Jump Target - Callers: 0453 
0x0456 F6         MOV @R0, A 
0x0457 DF E4      DJNZ R7,  0x043D
0x0459 80 0B      SJMP  0x0466

; Data in FLASH Space
0x045B            0x01
0x045C            0x02
0x045D            0x04
0x045E            0x08
0x045F            0x10
0x0460            0x20 ( )
0x0461            0x40 (@)
0x0462            0x80

; Jump Target - Callers: 0425 
0x0463 90 0B 5F   MOV DPTR,  #0x0B5F    ;Set DPTR to B5F. Sure enough, thats the start of a data table.

; Jump Target - Callers: 043B 0459 04A6 
0x0466 E4         CLR A                 ;clear accum
0x0467 7E 01      MOV R6,  #0x01        ;Set R6 to 1
0x0469 93         MOVC A, @A+DPTR       ;Grab FLASH byte (going to be at 0+B5F at this point)
0x046A 60 BC      JZ  0x0428            ;If it wasn't zero then branch to 0x428
0x046C A3         INC DPTR              ;Increment DPTR
0x046D FF         MOV R7, A             ;Store current accum to R7
0x046E 54 3F      ANL A,  #0x3F         ;Accum = Accum & 3F (keep only lowest 6 bits)
0x0470 30 E5 09   JNB  ACC.5, 0x047C    ;If 5th bit is set then branch to 0x47C
0x0473 54 1F      ANL A,  #0x1F         ;Now mask down to to 5 bits
0x0475 FE         MOV R6, A             ;Save new Accum value to R6
0x0476 E4         CLR A                 ;clear out accum
0x0477 93         MOVC A, @A+DPTR       ;Grab byte at location DPTR (A is 0 after all)
0x0478 A3         INC DPTR              ;Increment DPTR
0x0479 60 01      JZ  0x047C            ;If grabbed value was 0 then branch to 0x47C
0x047B 0E         INC R6 

; Jump Target - Callers: 0470 0479 
0x047C CF         XCH A, R7             ;Target of two branches above, switch accum and R7
0x047D 54 C0      ANL A,  #0xC0         ;Save only top two bits of accum
0x047F 25 E0      ADD A,  ACC           ;Multiply the accum by two (add it to itself)
0x0481 60 A8      JZ  0x042B            ;If accum is 0 then branch to 0x42B
0x0483 40 B8      JC  0x043D            ;If carry set (basically, was accum bit 7 set?) then branch to 0x43D
0x0485 E4         CLR A                 ;clear accum
0x0486 93         MOVC A, @A+DPTR       ;Grab value at DPTR (Flash)
0x0487 A3         INC DPTR              ;Increment DPTR
0x0488 FA         MOV R2, A             ;Save Accum to R2
0x0489 E4         CLR A                 ;Clear Accum
0x048A 93         MOVC A, @A+DPTR       ;Grab value at DPTR (Flash)
0x048B A3         INC DPTR              ;Increment DPTR
0x048C F8         MOV R0, A             ;Save Accum to R0

; Jump Target - Callers: 04A2 04A4 
0x048D E4         CLR A                 ;clear accum
0x048E 93         MOVC A, @A+DPTR       ;grab value at DPTR (Flash)
0x048F A3         INC DPTR              ;Increment DPTR
0x0490 C8         XCH A, R0             ;Swap R0 and Accum
0x0491 C5 82      XCH A,  DPL           ;Swap Accum and low byte of DPTR
0x0493 C8         XCH A, R0             ;Swap Accum and R0
0x0494 CA         XCH A, R2             ;Swap Accum and R2
0x0495 C5 83      XCH A,  DPH           ;Swap Accum and high byte of DPTR
0x0497 CA         XCH A, R2             ;Swap Accum and R2
0x0498 F0         MOVX @DPTR, A         ;Grab value at DPTR (RAM)
0x0499 A3         INC DPTR              ;Increment DPTR
0x049A C8         XCH A, R0             ;Swap Accum and R0
0x049B C5 82      XCH A,  DPL           ;Swap Accum and low byte of DPTR
0x049D C8         XCH A, R0             ;Swap Accum and R0
0x049E CA         XCH A, R2             ;Swap Accum and R2
0x049F C5 83      XCH A,  DPH           ;Swap Accum and high byte of DPTR
0x04A1 CA         XCH A, R2             ;Swap Accum and R2
0x04A2 DF E9      DJNZ R7,  0x048D      ;Deincrement R7 and branch if not zero to 0x48D
0x04A4 DE E7      DJNZ R6,  0x048D      ;Deincrement R6 and branch if not zero to 0x48D
0x04A6 80 BE      SJMP  0x0466          ;Branch back up to 0x466

; Jump Target - Callers: 0AB1 073B 
0x04A8 8C 0C      MOV  X0Ch, R4
0x04AA 8D 0D      MOV  X0Dh, R5
0x04AC AD 07      MOV R5,  X07h
0x04AE AC 06      MOV R4,  X06h
0x04B0 8A 0E      MOV  X0Eh, R2
0x04B2 8B 0F      MOV  X0Fh, R3
0x04B4 E4         CLR A 
0x04B5 F9         MOV R1, A 

; Jump Target - Callers: 0515 
0x04B6 D3         SETB C 
0x04B7 ED         MOV A, R5 
0x04B8 95 0D      SUBB A,  X0Dh
0x04BA EC         MOV A, R4 
0x04BB 95 0C      SUBB A,  X0Ch
0x04BD 50 58      JNC  0x0517
0x04BF AF 05      MOV R7,  X05h
0x04C1 AE 04      MOV R6,  X04h
0x04C3 12 0B 78   LCALL  0x0B78
0x04C6 EF         MOV A, R7 
0x04C7 7B 00      MOV R3,  #0x00
0x04C9 FA         MOV R2, A 
0x04CA ED         MOV A, R5 
0x04CB 24 01      ADD A,  #0x01
0x04CD FF         MOV R7, A 
0x04CE E4         CLR A 
0x04CF 3C         ADDC A, R4 
0x04D0 FE         MOV R6, A 
0x04D1 12 0B 78   LCALL  0x0B78
0x04D4 7E 00      MOV R6,  #0x00
0x04D6 EB         MOV A, R3 
0x04D7 2F         ADD A, R7 
0x04D8 F5 11      MOV  X11h, A
0x04DA EE         MOV A, R6 
0x04DB 3A         ADDC A, R2 
0x04DC F5 10      MOV  X10h, A
0x04DE C3         CLR C 
0x04DF 74 FF      MOV A,  #0xFF
0x04E1 95 11      SUBB A,  X11h
0x04E3 FF         MOV R7, A 
0x04E4 74 FF      MOV A,  #0xFF
0x04E6 95 10      SUBB A,  X10h
0x04E8 FE         MOV R6, A 
0x04E9 C3         CLR C 
0x04EA EF         MOV A, R7 
0x04EB 95 0F      SUBB A,  X0Fh
0x04ED EE         MOV A, R6 
0x04EE 95 0E      SUBB A,  X0Eh
0x04F0 40 04      JC  0x04F6
0x04F2 7F 00      MOV R7,  #0x00
0x04F4 80 02      SJMP  0x04F8

; Jump Target - Callers: 04F0 
0x04F6 7F 01      MOV R7,  #0x01

; Jump Target - Callers: 04F4 
0x04F8 A9 07      MOV R1,  X07h
0x04FA E5 0F      MOV A,  X0Fh
0x04FC 25 11      ADD A,  X11h
0x04FE FF         MOV R7, A 
0x04FF E5 0E      MOV A,  X0Eh
0x0501 35 10      ADDC A,  X10h
0x0503 FE         MOV R6, A 
0x0504 E9         MOV A, R1 
0x0505 7A 00      MOV R2,  #0x00
0x0507 2F         ADD A, R7 
0x0508 F5 0F      MOV  X0Fh, A
0x050A EA         MOV A, R2 
0x050B 3E         ADDC A, R6 
0x050C F5 0E      MOV  X0Eh, A
0x050E 74 02      MOV A,  #0x02
0x0510 2D         ADD A, R5 
0x0511 FD         MOV R5, A 
0x0512 E4         CLR A 
0x0513 3C         ADDC A, R4 
0x0514 FC         MOV R4, A 
0x0515 80 9F      SJMP  0x04B6

; Jump Target - Callers: 04BD 
0x0517 63 0F FF   XRL  X0Fh, #0xFF
0x051A 63 0E FF   XRL  X0Eh, #0xFF
0x051D E5 0F      MOV A,  X0Fh
0x051F B4 FF 0B   CJNE A,  #0xFF, 0x052D
0x0522 E5 0E      MOV A,  X0Eh
0x0524 B4 FF 06   CJNE A,  #0xFF, 0x052D
0x0527 74 A5      MOV A,  #0xA5
0x0529 F5 0E      MOV  X0Eh, A
0x052B F5 0F      MOV  X0Fh, A

; Jump Target - Callers: 051F 0524 
0x052D AE 0E      MOV R6,  X0Eh
0x052F AF 0F      MOV R7,  X0Fh
0x0531 22         RET 

; Jump Target - Callers: 0A23 
0x0532 E4         CLR A 
0x0533 F5 09      MOV  X09h, A
0x0535 F5 0A      MOV  X0Ah, A
0x0537 F5 0B      MOV  X0Bh, A
0x0539 7F 01      MOV R7,  #0x01
0x053B 12 00 56   LCALL  0x0056

; Jump Target - Callers: 05AF 05A9 0584 056A 
0x053E E5 09      MOV A,  X09h
0x0540 C3         CLR C 
0x0541 94 80      SUBB A,  #0x80
0x0543 50 6F      JNC  0x05B4
0x0545 7A 00      MOV R2,  #0x00
0x0547 79 08      MOV R1,  #0x08
0x0549 12 0B 8F   LCALL  0x0B8F
0x054C 12 06 D2   LCALL  0x06D2
0x054F 8F 0C      MOV  X0Ch, R7
0x0551 E5 0C      MOV A,  X0Ch
0x0553 64 01      XRL A,  #0x01
0x0555 70 54      JNZ  0x05AB
0x0557 05 09      INC  X09h
0x0559 AF 0B      MOV R7,  X0Bh
0x055B 05 0B      INC  X0Bh
0x055D EF         MOV A, R7 
0x055E 90 0B 74   MOV DPTR,  #0x0B74
0x0561 93         MOVC A, @A+DPTR 
0x0562 B5 08 0A   CJNE A,  X08h, 0x056F
0x0565 E5 0B      MOV A,  X0Bh
0x0567 C3         CLR C 
0x0568 94 04      SUBB A,  #0x04
0x056A 40 D2      JC  0x053E
0x056C 7F 05      MOV R7,  #0x05
0x056E 22         RET 

; Jump Target - Callers: 0562 
0x056F E4         CLR A 
0x0570 F5 0B      MOV  X0Bh, A
0x0572 AF 0A      MOV R7,  X0Ah
0x0574 05 0A      INC  X0Ah
0x0576 EF         MOV A, R7 
0x0577 90 0B 6C   MOV DPTR,  #0x0B6C
0x057A 93         MOVC A, @A+DPTR 
0x057B 65 08      XRL A,  X08h
0x057D 70 27      JNZ  0x05A6
0x057F E5 0A      MOV A,  X0Ah
0x0581 C3         CLR C 
0x0582 94 08      SUBB A,  #0x08
0x0584 40 B8      JC  0x053E
0x0586 E4         CLR A 
0x0587 75 17 42   MOV  X17h, #0x42
0x058A 75 16 EF   MOV  X16h, #0xEF
0x058D F5 15      MOV  X15h, A
0x058F F5 14      MOV  X14h, A
0x0591 7F 01      MOV R7,  #0x01
0x0593 12 09 52   LCALL  0x0952
0x0596 EF         MOV A, R7 
0x0597 64 02      XRL A,  #0x02
0x0599 60 03      JZ  0x059E
0x059B 7F 03      MOV R7,  #0x03
0x059D 22         RET 

; Jump Target - Callers: 0599 
0x059E E4         CLR A 
0x059F FF         MOV R7, A 
0x05A0 12 00 56   LCALL  0x0056
0x05A3 7F 06      MOV R7,  #0x06
0x05A5 22         RET 

; Jump Target - Callers: 057D 
0x05A6 E4         CLR A 
0x05A7 F5 0A      MOV  X0Ah, A
0x05A9 80 93      SJMP  0x053E

; Jump Target - Callers: 0555 
0x05AB E5 0C      MOV A,  X0Ch
0x05AD 64 02      XRL A,  #0x02
0x05AF 70 8D      JNZ  0x053E
0x05B1 7F 02      MOV R7,  #0x02
0x05B3 22         RET 

; Jump Target - Callers: 0543 
0x05B4 7F 03      MOV R7,  #0x03
0x05B6 22         RET 

; Jump Target - Callers: 01C3 026E 
0x05B7 8B 13      MOV  X13h, R3
0x05B9 8A 14      MOV  X14h, R2
0x05BB 89 15      MOV  X15h, R1
0x05BD 7A 00      MOV R2,  #0x00
0x05BF 79 19      MOV R1,  #0x19
0x05C1 12 08 E2   LCALL  0x08E2
0x05C4 FC         MOV R4, A 
0x05C5 12 07 BF   LCALL  0x07BF
0x05C8 BF 01 06   CJNE R7,  #0x01, 0x05D1
0x05CB E5 19      MOV A,  X19h
0x05CD 64 01      XRL A,  #0x01
0x05CF 60 03      JZ  0x05D4

; Jump Target - Callers: 05C8 
0x05D1 7F 00      MOV R7,  #0x00
0x05D3 22         RET 

; Jump Target - Callers: 05CF 
0x05D4 12 00 16   LCALL  0x0016
0x05D7 7A 00      MOV R2,  #0x00
0x05D9 79 1A      MOV R1,  #0x1A
0x05DB 12 08 C8   LCALL  0x08C8
0x05DE F5 29      MOV  X29h, A
0x05E0 7D 02      MOV R5,  #0x02
0x05E2 12 02 F3   LCALL  0x02F3
0x05E5 EF         MOV A, R7 
0x05E6 64 01      XRL A,  #0x01
0x05E8 60 03      JZ  0x05ED
0x05EA 7F 00      MOV R7,  #0x00
0x05EC 22         RET 

; Jump Target - Callers: 05E8 
0x05ED 12 00 16   LCALL  0x0016
0x05F0 AB 1A      MOV R3,  X1Ah
0x05F2 AA 1B      MOV R2,  X1Bh
0x05F4 A9 1C      MOV R1,  X1Ch
0x05F6 12 00 8E   LCALL  0x008E
0x05F9 64 01      XRL A,  #0x01
0x05FB AB 13      MOV R3,  X13h
0x05FD AA 14      MOV R2,  X14h
0x05FF A9 15      MOV R1,  X15h
0x0601 12 00 D4   LCALL  0x00D4
0x0604 AB 1A      MOV R3,  X1Ah
0x0606 AA 1B      MOV R2,  X1Bh
0x0608 A9 1C      MOV R1,  X1Ch
0x060A 90 00 01   MOV DPTR,  #0x0001
0x060D 12 00 A7   LCALL  0x00A7
0x0610 64 01      XRL A,  #0x01
0x0612 AB 16      MOV R3,  X16h
0x0614 AA 17      MOV R2,  X17h
0x0616 A9 18      MOV R1,  X18h
0x0618 12 00 D4   LCALL  0x00D4
0x061B 7F 01      MOV R7,  #0x01
0x061D 22         RET 

; Jump Target - Callers: 07A3 
0x061E 7B 00      MOV R3,  #0x00
0x0620 7A 00      MOV R2,  #0x00
0x0622 79 0A      MOV R1,  #0x0A
0x0624 12 06 79   LCALL  0x0679
0x0627 EF         MOV A, R7 
0x0628 60 4B      JZ  0x0675
0x062A 12 00 16   LCALL  0x0016
0x062D 7A 00      MOV R2,  #0x00
0x062F 79 0C      MOV R1,  #0x0C
0x0631 12 08 E2   LCALL  0x08E2
0x0634 FC         MOV R4, A 
0x0635 12 07 BF   LCALL  0x07BF
0x0638 EF         MOV A, R7 
0x0639 64 01      XRL A,  #0x01
0x063B 60 14      JZ  0x0651
0x063D 7E 00      MOV R6,  #0x00
0x063F E5 0B      MOV A,  X0Bh
0x0641 25 0C      ADD A,  X0Ch
0x0643 FF         MOV R7, A 
0x0644 EE         MOV A, R6 
0x0645 35 0A      ADDC A,  X0Ah
0x0647 FE         MOV R6, A 
0x0648 D3         SETB C 
0x0649 EF         MOV A, R7 
0x064A 94 FF      SUBB A,  #0xFF
0x064C EE         MOV A, R6 
0x064D 94 1D      SUBB A,  #0x1D
0x064F 40 24      JC  0x0675

; Jump Target - Callers: 063B 
0x0651 12 00 16   LCALL  0x0016
0x0654 E4         CLR A 
0x0655 F5 0D      MOV  X0Dh, A

; Jump Target - Callers: 0673 
0x0657 E5 0D      MOV A,  X0Dh
0x0659 C3         CLR C 
0x065A 95 0C      SUBB A,  X0Ch
0x065C 50 1A      JNC  0x0678
0x065E 7E 00      MOV R6,  #0x00
0x0660 E5 0B      MOV A,  X0Bh
0x0662 25 0D      ADD A,  X0Dh
0x0664 FF         MOV R7, A 
0x0665 EE         MOV A, R6 
0x0666 35 0A      ADDC A,  X0Ah
0x0668 FE         MOV R6, A 
0x0669 12 0B 78   LCALL  0x0B78
0x066C 8F 0E      MOV  X0Eh, R7
0x066E 12 00 46   LCALL  0x0046
0x0671 05 0D      INC  X0Dh
0x0673 80 E2      SJMP  0x0657

; Jump Target - Callers: 0628 064F 
0x0675 12 00 1E   LCALL  0x001E

; Jump Target - Callers: 065C 
0x0678 22         RET 

; Jump Target - Callers: 01D2 0624 
0x0679 8B 13      MOV  X13h, R3
0x067B 8A 14      MOV  X14h, R2
0x067D 89 15      MOV  X15h, R1
0x067F 7B 00      MOV R3,  #0x00
0x0681 7A 00      MOV R2,  #0x00
0x0683 79 16      MOV R1,  #0x16
0x0685 12 08 CA   LCALL  0x08CA
0x0688 F5 29      MOV  X29h, A
0x068A 7D 02      MOV R5,  #0x02
0x068C 12 02 F3   LCALL  0x02F3
0x068F EF         MOV A, R7 
0x0690 64 01      XRL A,  #0x01
0x0692 60 03      JZ  0x0697
0x0694 7F 00      MOV R7,  #0x00
0x0696 22         RET 

; Jump Target - Callers: 0692 
0x0697 AB 16      MOV R3,  X16h
0x0699 AA 17      MOV R2,  X17h
0x069B A9 18      MOV R1,  X18h
0x069D 90 00 01   MOV DPTR,  #0x0001
0x06A0 12 00 A7   LCALL  0x00A7
0x06A3 FD         MOV R5, A 
0x06A4 7C 00      MOV R4,  #0x00
0x06A6 12 00 8E   LCALL  0x008E
0x06A9 FE         MOV R6, A 
0x06AA E4         CLR A 
0x06AB 2D         ADD A, R5 
0x06AC FF         MOV R7, A 
0x06AD EC         MOV A, R4 
0x06AE 3E         ADDC A, R6 
0x06AF AB 13      MOV R3,  X13h
0x06B1 AA 14      MOV R2,  X14h
0x06B3 A9 15      MOV R1,  X15h
0x06B5 8F F0      MOV  B, R7
0x06B7 12 01 11   LCALL  0x0111
0x06BA AB 13      MOV R3,  X13h
0x06BC AA 14      MOV R2,  X14h
0x06BE A9 15      MOV R1,  X15h
0x06C0 12 00 E6   LCALL  0x00E6
0x06C3 D3         SETB C 
0x06C4 94 FF      SUBB A,  #0xFF
0x06C6 E5 F0      MOV A,  B
0x06C8 94 1D      SUBB A,  #0x1D
0x06CA 40 03      JC  0x06CF
0x06CC 7F 00      MOV R7,  #0x00
0x06CE 22         RET 

; Jump Target - Callers: 06CA 
0x06CF 7F 01      MOV R7,  #0x01
0x06D1 22         RET 

; Jump Target - Callers: 054C 0A16 
0x06D2 8B 34      MOV  X34h, R3
0x06D4 8A 35      MOV  X35h, R2
0x06D6 89 36      MOV  X36h, R1
0x06D8 8F 3A      MOV  X3Ah, R7
0x06DA 8E 39      MOV  X39h, R6
0x06DC 8D 38      MOV  X38h, R5
0x06DE 8C 37      MOV  X37h, R4

; Jump Target - Callers: 06F2 0705 
0x06E0 20 98 27   JB  SCON.0, 0x070A
0x06E3 12 09 24   LCALL  0x0924
0x06E6 AF 3A      MOV R7,  X3Ah
0x06E8 AE 39      MOV R6,  X39h
0x06EA AD 38      MOV R5,  X38h
0x06EC AC 37      MOV R4,  X37h
0x06EE 12 0B 52   LCALL  0x0B52
0x06F1 EF         MOV A, R7 
0x06F2 60 EC      JZ  0x06E0
0x06F4 E4         CLR A 
0x06F5 FF         MOV R7, A 
0x06F6 FE         MOV R6, A 
0x06F7 FD         MOV R5, A 
0x06F8 FC         MOV R4, A 
0x06F9 AB 3A      MOV R3,  X3Ah
0x06FB AA 39      MOV R2,  X39h
0x06FD A9 38      MOV R1,  X38h
0x06FF A8 37      MOV R0,  X37h
0x0701 D3         SETB C 
0x0702 12 01 30   LCALL  0x0130
0x0705 40 D9      JC  0x06E0
0x0707 7F 02      MOV R7,  #0x02
0x0709 22         RET 

; Jump Target - Callers: 06E0 
0x070A 85 99 66   MOV  X66h, SBUF
0x070D C2 98      CLR  SCON.0
0x070F AB 34      MOV R3,  X34h
0x0711 AA 35      MOV R2,  X35h
0x0713 A9 36      MOV R1,  X36h
0x0715 E5 66      MOV A,  X66h
0x0717 12 00 D4   LCALL  0x00D4
0x071A E5 68      MOV A,  X68h
0x071C 60 05      JZ  0x0723
0x071E AF 66      MOV R7,  X66h
0x0720 12 0A E9   LCALL  0x0AE9

; Jump Target - Callers: 071C 
0x0723 7F 01      MOV R7,  #0x01
0x0725 22         RET 

; Jump Target - Callers: 077B 
0x0726 7F 00      MOV R7,  #0x00
0x0728 7E 1A      MOV R6,  #0x1A
0x072A 12 0B 78   LCALL  0x0B78
0x072D EF         MOV A, R7 
0x072E F4         CPL A 
0x072F 60 42      JZ  0x0773
0x0731 E4         CLR A 
0x0732 FB         MOV R3, A 
0x0733 FA         MOV R2, A 
0x0734 7D FD      MOV R5,  #0xFD
0x0736 7C 1B      MOV R4,  #0x1B
0x0738 FF         MOV R7, A 
0x0739 7E 0C      MOV R6,  #0x0C
0x073B 12 04 A8   LCALL  0x04A8
0x073E 8E 0A      MOV  X0Ah, R6
0x0740 8F 0B      MOV  X0Bh, R7
0x0742 7F FE      MOV R7,  #0xFE
0x0744 7E 1B      MOV R6,  #0x1B
0x0746 12 0B 78   LCALL  0x0B78
0x0749 EF         MOV A, R7 
0x074A 7F 00      MOV R7,  #0x00
0x074C FE         MOV R6, A 
0x074D C0 06      PUSH  X06h
0x074F C0 07      PUSH  X07h
0x0751 7F FF      MOV R7,  #0xFF
0x0753 7E 1B      MOV R6,  #0x1B
0x0755 12 0B 78   LCALL  0x0B78
0x0758 EF         MOV A, R7 
0x0759 FD         MOV R5, A 
0x075A D0 E0      POP  ACC
0x075C 2D         ADD A, R5 
0x075D FF         MOV R7, A 
0x075E D0 E0      POP  ACC
0x0760 34 00      ADDC A,  #0x00
0x0762 FE         MOV R6, A 
0x0763 E5 0B      MOV A,  X0Bh
0x0765 B5 07 0B   CJNE A,  X07h, 0x0773
0x0768 E5 0A      MOV A,  X0Ah
0x076A B5 06 06   CJNE A,  X06h, 0x0773
0x076D 12 0B D7   LCALL  0x0BD7
0x0770 12 0C 00   LCALL  0x0C00

; Jump Target - Callers: 072F 0765 076A 
0x0773 22         RET 

; Jump Target - Callers: 09C8 0BD0 
0x0774 8F 09      MOV  X09h, R7
0x0776 E5 09      MOV A,  X09h
0x0778 B4 21 03   CJNE A,  #0x21, 0x077E
0x077B 02 07 26   LJMP  0x0726

; Jump Target - Callers: 0778 
0x077E 12 00 16   LCALL  0x0016
0x0781 E5 09      MOV A,  X09h
0x0783 24 E6      ADD A,  #0xE6
0x0785 60 25      JZ  0x07AC
0x0787 24 EF      ADD A,  #0xEF
0x0789 60 24      JZ  0x07AF
0x078B 24 FA      ADD A,  #0xFA
0x078D 60 1A      JZ  0x07A9
0x078F 24 F5      ADD A,  #0xF5
0x0791 60 1F      JZ  0x07B2
0x0793 24 F9      ADD A,  #0xF9
0x0795 60 0F      JZ  0x07A6
0x0797 24 F6      ADD A,  #0xF6
0x0799 60 1A      JZ  0x07B5
0x079B 24 EF      ADD A,  #0xEF
0x079D 60 19      JZ  0x07B8
0x079F 24 4D      ADD A,  #0x4D
0x07A1 70 18      JNZ  0x07BB
0x07A3 02 06 1E   LJMP  0x061E

; Jump Target - Callers: 0795 
0x07A6 02 02 5C   LJMP  0x025C

; Jump Target - Callers: 078D 
0x07A9 02 01 B1   LJMP  0x01B1

; Jump Target - Callers: 0785 
0x07AC 02 00 06   LJMP  0x0006

; Jump Target - Callers: 0789 
0x07AF 02 00 0E   LJMP  0x000E

; Jump Target - Callers: 0791 
0x07B2 02 0B B0   LJMP  0x0BB0

; Jump Target - Callers: 0799 
0x07B5 02 0B BA   LJMP  0x0BBA

; Jump Target - Callers: 079D 
0x07B8 02 0B 84   LJMP  0x0B84

; Jump Target - Callers: 07A1 
0x07BB 12 00 1E   LCALL  0x001E
0x07BE 22         RET 

; Jump Target - Callers: 081A 09B5 05C5 0635 
0x07BF 8B 1D      MOV  X1Dh, R3
0x07C1 8A 1E      MOV  X1Eh, R2
0x07C3 89 1F      MOV  X1Fh, R1
0x07C5 7B 00      MOV R3,  #0x00
0x07C7 7A 00      MOV R2,  #0x00
0x07C9 79 3B      MOV R1,  #0x3B
0x07CB 12 09 F7   LCALL  0x09F7
0x07CE EF         MOV A, R7 
0x07CF 64 01      XRL A,  #0x01
0x07D1 60 03      JZ  0x07D6
0x07D3 7F 02      MOV R7,  #0x02
0x07D5 22         RET 

; Jump Target - Callers: 07D1 
0x07D6 7B 00      MOV R3,  #0x00
0x07D8 7A 00      MOV R2,  #0x00
0x07DA 79 28      MOV R1,  #0x28
0x07DC AF 27      MOV R7,  X27h
0x07DE AE 26      MOV R6,  X26h
0x07E0 AD 25      MOV R5,  X25h
0x07E2 AC 24      MOV R4,  X24h
0x07E4 12 09 F7   LCALL  0x09F7
0x07E7 EF         MOV A, R7 
0x07E8 64 01      XRL A,  #0x01
0x07EA 60 03      JZ  0x07EF
0x07EC 7F 02      MOV R7,  #0x02
0x07EE 22         RET 

; Jump Target - Callers: 07EA 
0x07EF E5 28      MOV A,  X28h
0x07F1 F4         CPL A 
0x07F2 65 3B      XRL A,  X3Bh
0x07F4 60 06      JZ  0x07FC
0x07F6 12 00 1E   LCALL  0x001E
0x07F9 7F 03      MOV R7,  #0x03
0x07FB 22         RET 

; Jump Target - Callers: 07F4 
0x07FC AB 1D      MOV R3,  X1Dh
0x07FE AA 1E      MOV R2,  X1Eh
0x0800 A9 1F      MOV R1,  X1Fh
0x0802 E5 3B      MOV A,  X3Bh
0x0804 12 00 D4   LCALL  0x00D4
0x0807 7F 01      MOV R7,  #0x01
0x0809 22         RET 

; Jump Target - Callers: 
0x080A 7F 01      MOV R7,  #0x01
0x080C 12 00 4E   LCALL  0x004E
0x080F 7A 00      MOV R2,  #0x00
0x0811 79 08      MOV R1,  #0x08
0x0813 12 0B 2A   LCALL  0x0B2A
0x0816 FF         MOV R7, A 
0x0817 FE         MOV R6, A 
0x0818 FD         MOV R5, A 
0x0819 FC         MOV R4, A 
0x081A 12 07 BF   LCALL  0x07BF
0x081D EF         MOV A, R7 
0x081E 64 01      XRL A,  #0x01
0x0820 60 04      JZ  0x0826
0x0822 75 69 05   MOV  X69h, #0x05
0x0825 22         RET 

; Jump Target - Callers: 0820 
0x0826 D2 93      SETB  P1.3
0x0828 E5 08      MOV A,  X08h
0x082A D3         SETB C 
0x082B 94 10      SUBB A,  #0x10
0x082D 40 06      JC  0x0835
0x082F 75 69 05   MOV  X69h, #0x05
0x0832 C2 93      CLR  P1.3
0x0834 22         RET 

; Jump Target - Callers: 082D 
0x0835 12 00 3E   LCALL  0x003E
0x0838 EF         MOV A, R7 
0x0839 B5 08 08   CJNE A,  X08h, 0x0844
0x083C 12 00 16   LCALL  0x0016
0x083F 75 69 03   MOV  X69h, #0x03
0x0842 80 03      SJMP  0x0847

; Jump Target - Callers: 0839 
0x0844 75 69 04   MOV  X69h, #0x04

; Jump Target - Callers: 0842 
0x0847 E4         CLR A 
0x0848 FF         MOV R7, A 
0x0849 12 00 4E   LCALL  0x004E
0x084C 22         RET 

; Jump Target - Callers: 098A 
0x084D 75 FF A0   MOV  VDDMON, #0xA0
0x0850 E5 B7      MOV A,  FLKEY
0x0852 64 02      XRL A,  #0x02
0x0854 60 10      JZ  0x0866
0x0856 12 00 8E   LCALL  0x008E
0x0859 F5 B7      MOV  FLKEY, A
0x085B AB 2D      MOV R3,  X2Dh
0x085D AA 2E      MOV R2,  X2Eh
0x085F A9 2F      MOV R1,  X2Fh
0x0861 12 00 8E   LCALL  0x008E
0x0864 F5 B7      MOV  FLKEY, A

; Jump Target - Callers: 0854 
0x0866 E5 B7      MOV A,  FLKEY
0x0868 64 02      XRL A,  #0x02
0x086A 60 03      JZ  0x086F
0x086C 7F 00      MOV R7,  #0x00
0x086E 22         RET 

; Jump Target - Callers: 086A 
0x086F E5 30      MOV A,  X30h
0x0871 B4 02 05   CJNE A,  #0x02, 0x0879
0x0874 75 8F 03   MOV  PSCTL, #0x03
0x0877 80 0F      SJMP  0x0888

; Jump Target - Callers: 0871 
0x0879 E5 30      MOV A,  X30h
0x087B B4 01 05   CJNE A,  #0x01, 0x0883
0x087E 75 8F 01   MOV  PSCTL, #0x01
0x0881 80 05      SJMP  0x0888

; Jump Target - Callers: 087B 
0x0883 E4         CLR A 
0x0884 F5 8F      MOV  PSCTL, A
0x0886 FF         MOV R7, A 
0x0887 22         RET 

; Jump Target - Callers: 0881 0877 
0x0888 7F 01      MOV R7,  #0x01
0x088A 22         RET 

; Jump Target - Callers: 02CE 
0x088B E4         CLR A 
0x088C FF         MOV R7, A 

; Jump Target - Callers: 0899 
0x088D EF         MOV A, R7 
0x088E 90 0B E5   MOV DPTR,  #0x0BE5
0x0891 93         MOVC A, @A+DPTR 
0x0892 B5 18 03   CJNE A,  X18h, 0x0898
0x0895 7F 03      MOV R7,  #0x03
0x0897 22         RET 

; Jump Target - Callers: 0892 
0x0898 0F         INC R7 
0x0899 BF 07 F1   CJNE R7,  #0x07, 0x088D
0x089C E5 18      MOV A,  X18h
0x089E B4 0E 03   CJNE A,  #0x0E, 0x08A4
0x08A1 7F 03      MOV R7,  #0x03
0x08A3 22         RET 

; Jump Target - Callers: 089E 
0x08A4 E5 18      MOV A,  X18h
0x08A6 25 E0      ADD A,  ACC
0x08A8 85 15 23   MOV  X23h, X15h
0x08AB 85 16 24   MOV  X24h, X16h
0x08AE 85 17 25   MOV  X25h, X17h
0x08B1 F5 26      MOV  X26h, A
0x08B3 75 27 00   MOV  X27h, #0x00
0x08B6 E4         CLR A 
0x08B7 F5 28      MOV  X28h, A
0x08B9 75 29 02   MOV  X29h, #0x02
0x08BC 12 09 7E   LCALL  0x097E
0x08BF EF         MOV A, R7 
0x08C0 70 03      JNZ  0x08C5
0x08C2 7F 03      MOV R7,  #0x03
0x08C4 22         RET 

; Jump Target - Callers: 08C0 
0x08C5 7F 01      MOV R7,  #0x01
0x08C7 22         RET 

; Jump Target - Callers: 05DB 0292 
0x08C8 7B 00      MOV R3,  #0x00

; Jump Target - Callers: 0685 
0x08CA 75 24 40   MOV  X24h, #0x40
0x08CD 75 23 28   MOV  X23h, #0x28
0x08D0 75 22 BA   MOV  X22h, #0xBA
0x08D3 75 21 00   MOV  X21h, #0x00
0x08D6 E4         CLR A 

; Jump Target - Callers: 0201 
0x08D7 75 28 F6   MOV  X28h, #0xF6
0x08DA 75 27 0B   MOV  X27h, #0x0B
0x08DD F5 26      MOV  X26h, A
0x08DF F5 25      MOV  X25h, A
0x08E1 22         RET 

; Jump Target - Callers: 05C1 0631 
0x08E2 7B 00      MOV R3,  #0x00
0x08E4 E4         CLR A 
0x08E5 75 27 F6   MOV  X27h, #0xF6
0x08E8 75 26 0B   MOV  X26h, #0x0B
0x08EB F5 25      MOV  X25h, A
0x08ED F5 24      MOV  X24h, A

; Jump Target - Callers: 027A 
0x08EF 7F 40      MOV R7,  #0x40
0x08F1 7E 28      MOV R6,  #0x28
0x08F3 7D BA      MOV R5,  #0xBA
0x08F5 22         RET 

; Jump Target - Callers: 0B3E 
0x08F6 8E 08      MOV  X08h, R6
0x08F8 8F 09      MOV  X09h, R7
0x08FA E4         CLR A 
0x08FB F5 0A      MOV  X0Ah, A
0x08FD 80 0A      SJMP  0x0909

; Jump Target - Callers: 090C 091C 0921 
0x08FF E5 0A      MOV A,  X0Ah
0x0901 70 20      JNZ  0x0923
0x0903 12 0A C4   LCALL  0x0AC4
0x0906 EF         MOV A, R7 
0x0907 60 05      JZ  0x090E

; Jump Target - Callers: 08FD 
0x0909 12 0B C4   LCALL  0x0BC4
0x090C 80 F1      SJMP  0x08FF

; Jump Target - Callers: 0907 
0x090E 12 09 24   LCALL  0x0924
0x0911 AE 08      MOV R6,  X08h
0x0913 AF 09      MOV R7,  X09h
0x0915 E4         CLR A 
0x0916 FC         MOV R4, A 
0x0917 FD         MOV R5, A 
0x0918 12 0B 52   LCALL  0x0B52
0x091B EF         MOV A, R7 
0x091C 60 E1      JZ  0x08FF
0x091E 75 0A 01   MOV  X0Ah, #0x01
0x0921 80 DC      SJMP  0x08FF

; Jump Target - Callers: 0901 
0x0923 22         RET 

; Jump Target - Callers: 06E3 090E 
0x0924 E5 61      MOV A,  X61h
0x0926 60 03      JZ  0x092B
0x0928 75 EC FF   MOV  PCACPH2, #0xFF

; Jump Target - Callers: 0926 
0x092B 30 CF 23   JNB  TMP2CN.7, 0x0951
0x092E 74 FF      MOV A,  #0xFF
0x0930 FF         MOV R7, A 
0x0931 FE         MOV R6, A 
0x0932 FD         MOV R5, A 
0x0933 FC         MOV R4, A 
0x0934 C3         CLR C 
0x0935 12 0B 9A   LCALL  0x0B9A
0x0938 50 15      JNC  0x094F
0x093A E5 60      MOV A,  X60h
0x093C 24 01      ADD A,  #0x01
0x093E F5 60      MOV  X60h, A
0x0940 E4         CLR A 
0x0941 35 5F      ADDC A,  X5Fh
0x0943 F5 5F      MOV  X5Fh, A
0x0945 E4         CLR A 
0x0946 35 5E      ADDC A,  X5Eh
0x0948 F5 5E      MOV  X5Eh, A
0x094A E4         CLR A 
0x094B 35 5D      ADDC A,  X5Dh
0x094D F5 5D      MOV  X5Dh, A

; Jump Target - Callers: 0938 
0x094F C2 CF      CLR  TMP2CN.7

; Jump Target - Callers: 092B 
0x0951 22         RET 

; Jump Target - Callers: 0593 0250 
0x0952 8F 13      MOV  X13h, R7
0x0954 E4         CLR A 
0x0955 F5 18      MOV  X18h, A

; Jump Target - Callers: 0979 
0x0957 E5 18      MOV A,  X18h
0x0959 C3         CLR C 
0x095A 95 13      SUBB A,  X13h
0x095C 50 1D      JNC  0x097B
0x095E 7B 00      MOV R3,  #0x00
0x0960 7A 00      MOV R2,  #0x00
0x0962 79 19      MOV R1,  #0x19
0x0964 AF 17      MOV R7,  X17h
0x0966 AE 16      MOV R6,  X16h
0x0968 AD 15      MOV R5,  X15h
0x096A AC 14      MOV R4,  X14h
0x096C 12 09 F7   LCALL  0x09F7
0x096F EF         MOV A, R7 
0x0970 64 01      XRL A,  #0x01
0x0972 60 03      JZ  0x0977
0x0974 7F 02      MOV R7,  #0x02
0x0976 22         RET 

; Jump Target - Callers: 0972 
0x0977 05 18      INC  X18h
0x0979 80 DC      SJMP  0x0957

; Jump Target - Callers: 095C 
0x097B 7F 01      MOV R7,  #0x01
0x097D 22         RET 

; Jump Target - Callers: 03F5 08BC 
0x097E 85 23 2D   MOV  X2Dh, X23h
0x0981 85 24 2E   MOV  X2Eh, X24h
0x0984 85 25 2F   MOV  X2Fh, X25h
0x0987 85 29 30   MOV  X30h, X29h
0x098A 12 08 4D   LCALL  0x084D
0x098D EF         MOV A, R7 
0x098E 70 02      JNZ  0x0992
0x0990 FF         MOV R7, A 
0x0991 22         RET 

; Jump Target - Callers: 098E 
0x0992 85 26 62   MOV  X62h, X26h
0x0995 85 27 63   MOV  X63h, X27h
0x0998 85 63 82   MOV  DPL, X63h
0x099B 85 62 83   MOV  DPH, X62h
0x099E E5 28      MOV A,  X28h
0x09A0 F0         MOVX @DPTR, A 
0x09A1 12 0B DE   LCALL  0x0BDE
0x09A4 7F 01      MOV R7,  #0x01
0x09A6 22         RET 

; Jump Target - Callers: 
0x09A7 7A 00      MOV R2,  #0x00
0x09A9 79 08      MOV R1,  #0x08
0x09AB 12 0B 2A   LCALL  0x0B2A
0x09AE 7F 40      MOV R7,  #0x40
0x09B0 7E 28      MOV R6,  #0x28
0x09B2 7D BA      MOV R5,  #0xBA
0x09B4 FC         MOV R4, A 
0x09B5 12 07 BF   LCALL  0x07BF
0x09B8 C2 93      CLR  P1.3
0x09BA EF         MOV A, R7 
0x09BB 64 01      XRL A,  #0x01
0x09BD 60 07      JZ  0x09C6
0x09BF 12 00 1E   LCALL  0x001E
0x09C2 75 69 04   MOV  X69h, #0x04
0x09C5 22         RET 

; Jump Target - Callers: 09BD 
0x09C6 AF 08      MOV R7,  X08h
0x09C8 12 07 74   LCALL  0x0774
0x09CB 75 69 02   MOV  X69h, #0x02
0x09CE 22         RET 

; Jump Target - Callers: 0A60 
0x09CF 7A 00      MOV R2,  #0x00
0x09D1 79 08      MOV R1,  #0x08
0x09D3 12 0B 8F   LCALL  0x0B8F
0x09D6 12 09 F7   LCALL  0x09F7
0x09D9 EF         MOV A, R7 
0x09DA 64 01      XRL A,  #0x01
0x09DC 60 08      JZ  0x09E6
0x09DE 7F 01      MOV R7,  #0x01
0x09E0 12 00 56   LCALL  0x0056
0x09E3 7F 02      MOV R7,  #0x02
0x09E5 22         RET 

; Jump Target - Callers: 09DC 
0x09E6 E5 08      MOV A,  X08h
0x09E8 04         INC A 
0x09E9 F5 5C      MOV  X5Ch, A
0x09EB FF         MOV R7, A 
0x09EC 12 0A E9   LCALL  0x0AE9
0x09EF 7F 01      MOV R7,  #0x01
0x09F1 12 00 56   LCALL  0x0056
0x09F4 7F 01      MOV R7,  #0x01
0x09F6 22         RET 

; Jump Target - Callers: 096C 09D6 07CB 07E4 0382 01E9 027F 
0x09F7 8B 2D      MOV  X2Dh, R3
0x09F9 8A 2E      MOV  X2Eh, R2
0x09FB 89 2F      MOV  X2Fh, R1
0x09FD 8F 33      MOV  X33h, R7
0x09FF 8E 32      MOV  X32h, R6
0x0A01 8D 31      MOV  X31h, R5
0x0A03 8C 30      MOV  X30h, R4
0x0A05 12 0B C4   LCALL  0x0BC4
0x0A08 AB 2D      MOV R3,  X2Dh
0x0A0A AA 2E      MOV R2,  X2Eh
0x0A0C A9 2F      MOV R1,  X2Fh
0x0A0E AF 33      MOV R7,  X33h
0x0A10 AE 32      MOV R6,  X32h
0x0A12 AD 31      MOV R5,  X31h
0x0A14 AC 30      MOV R4,  X30h
0x0A16 12 06 D2   LCALL  0x06D2
0x0A19 22         RET 

; Jump Target - Callers: 
0x0A1A 7F 01      MOV R7,  #0x01
0x0A1C 12 00 4E   LCALL  0x004E
0x0A1F C2 93      CLR  P1.3
0x0A21 D2 93      SETB  P1.3
0x0A23 12 05 32   LCALL  0x0532
0x0A26 EF         MOV A, R7 
0x0A27 64 06      XRL A,  #0x06
0x0A29 60 06      JZ  0x0A31
0x0A2B 75 69 05   MOV  X69h, #0x05
0x0A2E C2 93      CLR  P1.3
0x0A30 22         RET 

; Jump Target - Callers: 0A29 
0x0A31 C2 93      CLR  P1.3
0x0A33 75 69 01   MOV  X69h, #0x01
0x0A36 E4         CLR A 
0x0A37 FF         MOV R7, A 
0x0A38 12 00 4E   LCALL  0x004E
0x0A3B 22         RET 

; Jump Target - Callers: 0B08 
0x0A3C E4         CLR A 
0x0A3D F5 69      MOV  X69h, A

; Jump Target - Callers: 0A59 
0x0A3F E5 69      MOV A,  X69h
0x0A41 75 F0 03   MOV  B, #0x03
0x0A44 A4         MUL AB 
0x0A45 24 D7      ADD A,  #0xD7
0x0A47 F5 82      MOV  DPL, A
0x0A49 E4         CLR A 
0x0A4A 34 0A      ADDC A,  #0x0A
0x0A4C F5 83      MOV  DPH, A
0x0A4E 74 01      MOV A,  #0x01
0x0A50 93         MOVC A, @A+DPTR 
0x0A51 FA         MOV R2, A 
0x0A52 74 02      MOV A,  #0x02
0x0A54 93         MOVC A, @A+DPTR 
0x0A55 F9         MOV R1, A 
0x0A56 12 01 90   LCALL  0x0190
0x0A59 80 E4      SJMP  0x0A3F

; Jump Target - Callers: 
0x0A5B 7F 01      MOV R7,  #0x01
0x0A5D 12 00 4E   LCALL  0x004E
0x0A60 12 09 CF   LCALL  0x09CF
0x0A63 EF         MOV A, R7 
0x0A64 64 01      XRL A,  #0x01
0x0A66 60 06      JZ  0x0A6E
0x0A68 C2 93      CLR  P1.3
0x0A6A 75 69 05   MOV  X69h, #0x05
0x0A6D 22         RET 

; Jump Target - Callers: 0A66 
0x0A6E 75 69 02   MOV  X69h, #0x02
0x0A71 C2 93      CLR  P1.3
0x0A73 E4         CLR A 
0x0A74 FF         MOV R7, A 
0x0A75 12 00 4E   LCALL  0x004E
0x0A78 22         RET 

; Jump Target - Callers: 0B00   - UART Setup Routine
0x0A79 D2 8E      SETB  TCON.6          ;enable timer 1 run control
0x0A7B 75 89 20   MOV  TMOD, #0x20      ;Timer Mode 0010 0000 = mode 2 - 8 bit auto reload
0x0A7E 75 8D EC   MOV  TH1, #0xEC       ;Timer 1 high byte = 0xEC
0x0A81 75 8E 18   MOV  CKCON, #0x18     ;CKCON = 0001 1000 = Timer 2 low byte uses system clock, Timer 1 uses system clock
0x0A84 D2 CA      SETB  TMP2CN.2        ;Set TMR2CN bit 2 = Timer 2 is enabled
0x0A86 C2 CB      CLR  TMP2CN.3         ;Clear Timer 2 CN bit 3 = operate in 16 bit mode
0x0A88 75 CA 6F   MOV  TMR2RLL, #0x6F   ;set up timer count registers.
0x0A8B 75 CB FE   MOV  TMR2RLH, #0xFE
0x0A8E 75 CC 6F   MOV  TMP2L, #0x6F
0x0A91 75 CD FE   MOV  TMR2H, #0xFE
0x0A94 22         RET 

; Jump Target - Callers: 0B12 - init routine called from reset vector - initializes ports
0x0A95 75 A5 FF   MOV  P1MDOUT, #0xFF   ;Set P1 MDOUT to all be push/pull
0x0A98 75 A4 9D   MOV  P0MDOUT, #0x9D   ;Set P0 MDOUT to 1001 1101 (1 = push/pull 0 = open drain)
0x0A9B 75 80 6A   MOV  P0, #0x6A        ;Set P0 pins to 0110 1010 (0 = low, 1 = high)
0x0A9E 75 D5 FF   MOV  P1SKIP, #0xFF    ;Set P1SKIP to all 1's (Skip all of them with crossbar)
0x0AA1 E4         CLR A 
0x0AA2 F5 90      MOV  P1, A            ;Set all P1 pins to low
0x0AA4 75 D4 F8   MOV  P0SKIP, #0xF8    ;Set P0SKIP to 1111 1000 (skip first 5 pins with crossbar)
0x0AA7 75 E1 03   MOV  XBR0, #0x03      ;Set crossbar 0 to 0000 0011 (Enable SPI and UART on pins)
0x0AAA 75 E2 C0   MOV  XBR1, #0xC0      ;Set crossbar 1 to 1100 0000 (Disable weak pull ups, enable crossbar)
0x0AAD 22         RET 

; Jump Target - Callers: 0BC1 0B8C 
0x0AAE E4         CLR A 
0x0AAF FB         MOV R3, A 
0x0AB0 FA         MOV R2, A 
0x0AB1 12 04 A8   LCALL  0x04A8
0x0AB4 8E 0A      MOV  X0Ah, R6
0x0AB6 8F 0B      MOV  X0Bh, R7
0x0AB8 EE         MOV A, R6 
0x0AB9 FF         MOV R7, A 
0x0ABA 12 00 46   LCALL  0x0046
0x0ABD AF 0B      MOV R7,  X0Bh
0x0ABF E5 0B      MOV A,  X0Bh
0x0AC1 02 00 46   LJMP  0x0046

; Jump Target - Callers: 0903 
0x0AC4 30 98 0D   JNB  SCON.0, 0x0AD4
0x0AC7 85 99 66   MOV  X66h, SBUF
0x0ACA C2 98      CLR  SCON.0
0x0ACC AF 66      MOV R7,  X66h
0x0ACE 12 0A E9   LCALL  0x0AE9
0x0AD1 7F 01      MOV R7,  #0x01
0x0AD3 22         RET 

; Jump Target - Callers: 0AC4 
0x0AD4 7F 00      MOV R7,  #0x00
0x0AD6 22         RET 

; Data in FLASH Space
0x0AD7            0xFF
0x0AD8            0x0A
0x0AD9            0x1A
0x0ADA            0xFF
0x0ADB            0x0A
0x0ADC            0x5B ([)
0x0ADD            0xFF
0x0ADE            0x08
0x0ADF            0x0A
0x0AE0            0xFF
0x0AE1            0x09
0x0AE2            0xA7
0x0AE3            0xFF
0x0AE4            0x0B
0x0AE5            0x38 (8)
0x0AE6            0xFF
0x0AE7            0x0B
0x0AE8            0xCE

; Jump Target - Callers: 0720 09EC 0020 0018 0046 0ACE 
0x0AE9 E5 67      MOV A,  X67h
0x0AEB 60 08      JZ  0x0AF5

; Jump Target - Callers: 0AED 
0x0AED 30 99 FD   JNB  SCON.1, 0x0AED
0x0AF0 C2 99      CLR  SCON.1
0x0AF2 E4         CLR A 
0x0AF3 F5 67      MOV  X67h, A

; Jump Target - Callers: 0AEB 
0x0AF5 75 67 01   MOV  X67h, #0x01
0x0AF8 8F 99      MOV  SBUF, R7
0x0AFA 22         RET 

; Jump Target - Callers: 0428 
0x0AFB 12 0B 0C   LCALL  0x0B0C
0x0AFE D2 93      SETB  P1.3
0x0B00 12 0A 79   LCALL  0x0A79
0x0B03 12 0B A5   LCALL  0x0BA5
0x0B06 C2 93      CLR  P1.3
0x0B08 12 0A 3C   LCALL  0x0A3C
0x0B0B 22         RET 

; Jump Target - Callers: 0AFB 
0x0B0C 12 0B 45   LCALL  0x0B45
0x0B0F 12 00 26   LCALL  0x0026
0x0B12 12 0A 95   LCALL  0x0A95
0x0B15 12 00 2E   LCALL  0x002E
0x0B18 02 00 36   LJMP  0x0036

; Jump Target - Callers: 03E7 040C 
0x0B1B AB 1B      MOV R3,  X1Bh
0x0B1D AA 1C      MOV R2,  X1Ch
0x0B1F A9 1D      MOV R1,  X1Dh
0x0B21 85 1F 82   MOV  DPL, X1Fh
0x0B24 75 83 00   MOV  DPH, #0x00
0x0B27 02 00 A7   LJMP  0x00A7

; Jump Target - Callers: 0813 09AB 
0x0B2A 7B 00      MOV R3,  #0x00
0x0B2C E4         CLR A 
0x0B2D 75 27 F6   MOV  X27h, #0xF6
0x0B30 75 26 0B   MOV  X26h, #0x0B
0x0B33 F5 25      MOV  X25h, A
0x0B35 F5 24      MOV  X24h, A
0x0B37 22         RET 

; Jump Target - Callers: 
0x0B38 C2 93      CLR  P1.3
0x0B3A 7F B6      MOV R7,  #0xB6
0x0B3C 7E B2      MOV R6,  #0xB2
0x0B3E 12 08 F6   LCALL  0x08F6
0x0B41 75 69 02   MOV  X69h, #0x02
0x0B44 22         RET 

; Jump Target - Callers: 0B0C 
0x0B45 75 FF 80   MOV  VDDMON, #0x80
0x0B48 E4         CLR A 
0x0B49 FF         MOV R7, A 

; Jump Target - Callers: 0B4B 
0x0B4A 0F         INC R7 
0x0B4B BF 14 FC   CJNE R7,  #0x14, 0x0B4A
0x0B4E 75 EF 02   MOV  RSTSRC, #0x02
0x0B51 22         RET 

; Jump Target - Callers: 06EE 0918 
0x0B52 D3         SETB C 
0x0B53 12 0B 9A   LCALL  0x0B9A
0x0B56 40 04      JC  0x0B5C
0x0B58 7F 01      MOV R7,  #0x01
0x0B5A 80 02      SJMP  0x0B5E

; Jump Target - Callers: 0B56 
0x0B5C 7F 00      MOV R7,  #0x00

; Jump Target - Callers: 0B5A 
0x0B5E 22         RET 

; Data in FLASH Space
0x0B5F            0x05
0x0B60            0x5D (])
0x0B61            0x00
0x0B62            0x00
0x0B63            0x00
0x0B64            0x00
0x0B65            0x00
0x0B66            0x03
0x0B67            0x66 (f)
0x0B68            0x00
0x0B69            0x00
0x0B6A            0x01
0x0B6B            0x00
0x0B6C            0x42 (B)
0x0B6D            0x4F (O)
0x0B6E            0x4F (O)
0x0B6F            0x54 (T)
0x0B70            0x6C (l)
0x0B71            0x6F (o)
0x0B72            0x61 (a)
0x0B73            0x64 (d)
0x0B74            0x81
0x0B75            0x8A
0x0B76            0x85
0x0B77            0x88

; Jump Target - Callers: 0409 0BB4 04C3 04D1 0669 072A 0746 0755 
0x0B78 8E 64      MOV  X64h, R6
0x0B7A 8F 65      MOV  X65h, R7
0x0B7C 8F 82      MOV  DPL, R7
0x0B7E 8E 83      MOV  DPH, R6
0x0B80 E4         CLR A 
0x0B81 93         MOVC A, @A+DPTR 
0x0B82 FF         MOV R7, A 
0x0B83 22         RET 

; Jump Target - Callers: 07B8 
0x0B84 7D FD      MOV R5,  #0xFD
0x0B86 7C 1B      MOV R4,  #0x1B
0x0B88 7F 00      MOV R7,  #0x00
0x0B8A 7E 0C      MOV R6,  #0x0C
0x0B8C 02 0A AE   LJMP  0x0AAE

; Jump Target - Callers: 0549 09D3 
0x0B8F 7B 00      MOV R3,  #0x00
0x0B91 7F 90      MOV R7,  #0x90
0x0B93 7E DC      MOV R6,  #0xDC
0x0B95 7D 01      MOV R5,  #0x01
0x0B97 7C 00      MOV R4,  #0x00
0x0B99 22         RET 

; Jump Target - Callers: 0935 0B53 
0x0B9A AB 60      MOV R3,  X60h
0x0B9C AA 5F      MOV R2,  X5Fh
0x0B9E A9 5E      MOV R1,  X5Eh
0x0BA0 A8 5D      MOV R0,  X5Dh
0x0BA2 02 01 30   LJMP  0x0130

; Jump Target - Callers: 0B03 
0x0BA5 C2 9F      CLR  SCON.7
0x0BA7 D2 9D      SETB  SCON.5
0x0BA9 D2 9C      SETB  SCON.4
0x0BAB C2 99      CLR  SCON.1
0x0BAD C2 98      CLR  SCON.0
0x0BAF 22         RET 

; Jump Target - Callers: 07B2 
0x0BB0 7F 00      MOV R7,  #0x00
0x0BB2 7E 1A      MOV R6,  #0x1A
0x0BB4 12 0B 78   LCALL  0x0B78
0x0BB7 02 00 46   LJMP  0x0046

; Jump Target - Callers: 07B5 
0x0BBA 7D FF      MOV R5,  #0xFF
0x0BBC 7C 0B      MOV R4,  #0x0B
0x0BBE E4         CLR A 
0x0BBF FF         MOV R7, A 
0x0BC0 FE         MOV R6, A 
0x0BC1 02 0A AE   LJMP  0x0AAE

; Jump Target - Callers: 0A05 0909 
0x0BC4 E4         CLR A 
0x0BC5 F5 60      MOV  X60h, A
0x0BC7 F5 5F      MOV  X5Fh, A
0x0BC9 F5 5E      MOV  X5Eh, A
0x0BCB F5 5D      MOV  X5Dh, A
0x0BCD 22         RET 

; Jump Target - Callers: 
0x0BCE 7F 21      MOV R7,  #0x21
0x0BD0 12 07 74   LCALL  0x0774
0x0BD3 E4         CLR A 
0x0BD4 F5 69      MOV  X69h, A
0x0BD6 22         RET 

; Jump Target - Callers: 076D 
0x0BD7 C2 9C      CLR  SCON.4
0x0BD9 C2 99      CLR  SCON.1
0x0BDB C2 98      CLR  SCON.0
0x0BDD 22         RET 

; Jump Target - Callers: 09A1 
0x0BDE 75 FF 80   MOV  VDDMON, #0x80
0x0BE1 E4         CLR A 
0x0BE2 F5 8F      MOV  PSCTL, A
0x0BE4 22         RET 

; Data in FLASH Space
0x0BE5            0x00
0x0BE6            0x01
0x0BE7            0x02
0x0BE8            0x03
0x0BE9            0x04
0x0BEA            0x05
0x0BEB            0xFF
0x0BEC            0xFF
0x0BED            0xFF
0x0BEE            0xFF
0x0BEF            0xFF
0x0BF0            0xFF
0x0BF1            0xFF
0x0BF2            0xFF
0x0BF3            0xFF
0x0BF4            0xFF
0x0BF5            0xFF
0x0BF6            0xFF
0x0BF7            0xFF
0x0BF8            0xFF
0x0BF9            0xFF
0x0BFA            0xFF
0x0BFB            0xFF
0x0BFC            0xFF
0x0BFD            0xFF
0x0BFE            0xFF
0x0BFF            0xFF

; Jump Target - Callers: 0770 
0x0C00 02 0D 2D   LJMP  0x0D2D

; Jump Target - Callers: 1260 
0x0C03 E4         CLR A 
0x0C04 F5 D9      MOV  PCAMD, A
0x0C06 75 EB FF   MOV  PCACPL2, #0xFF
0x0C09 75 D9 60   MOV  PCAMD, #0x60
0x0C0C 22         RET 

; Data in FLASH Space
0x0C0D            0xFF
0x0C0E            0xFF

; Jump Target - Callers: 0023 
0x0C0F 02 0D B9   LJMP  0x0DB9

; Jump Target - Callers: 002B 
0x0C12 02 11 0A   LJMP  0x110A

; Data in FLASH Space
0x0C15            0x00
0x0C16            0x07
0x0C17            0x0E
0x0C18            0x09
0x0C19            0x1C
0x0C1A            0x1B
0x0C1B            0x12
0x0C1C            0x15
0x0C1D            0x38 (8)
0x0C1E            0x3F (?)
0x0C1F            0x36 (6)
0x0C20            0x31 (1)
0x0C21            0x24 ($)
0x0C22            0x23 (#)
0x0C23            0x2A (*)
0x0C24            0x2D (-)
0x0C25            0x70 (p)
0x0C26            0x77 (w)
0x0C27            0x7E (~)
0x0C28            0x79 (y)
0x0C29            0x6C (l)
0x0C2A            0x6B (k)
0x0C2B            0x62 (b)
0x0C2C            0x65 (e)
0x0C2D            0x48 (H)
0x0C2E            0x4F (O)
0x0C2F            0x46 (F)
0x0C30            0x41 (A)
0x0C31            0x54 (T)
0x0C32            0x53 (S)
0x0C33            0x5A (Z)
0x0C34            0x5D (])
0x0C35            0xE0
0x0C36            0xE7
0x0C37            0xEE
0x0C38            0xE9
0x0C39            0xFC
0x0C3A            0xFB
0x0C3B            0xF2
0x0C3C            0xF5
0x0C3D            0xD8
0x0C3E            0xDF
0x0C3F            0xD6
0x0C40            0xD1
0x0C41            0xC4
0x0C42            0xC3
0x0C43            0xCA
0x0C44            0xCD
0x0C45            0x90
0x0C46            0x97
0x0C47            0x9E
0x0C48            0x99
0x0C49            0x8C
0x0C4A            0x8B
0x0C4B            0x82
0x0C4C            0x85
0x0C4D            0xA8
0x0C4E            0xAF
0x0C4F            0xA6
0x0C50            0xA1
0x0C51            0xB4
0x0C52            0xB3
0x0C53            0xBA
0x0C54            0xBD
0x0C55            0xC7
0x0C56            0xC0
0x0C57            0xC9
0x0C58            0xCE
0x0C59            0xDB
0x0C5A            0xDC
0x0C5B            0xD5
0x0C5C            0xD2
0x0C5D            0xFF
0x0C5E            0xF8
0x0C5F            0xF1
0x0C60            0xF6
0x0C61            0xE3
0x0C62            0xE4
0x0C63            0xED
0x0C64            0xEA
0x0C65            0xB7
0x0C66            0xB0
0x0C67            0xB9
0x0C68            0xBE
0x0C69            0xAB
0x0C6A            0xAC
0x0C6B            0xA5
0x0C6C            0xA2
0x0C6D            0x8F
0x0C6E            0x88
0x0C6F            0x81
0x0C70            0x86
0x0C71            0x93
0x0C72            0x94
0x0C73            0x9D
0x0C74            0x9A
0x0C75            0x27 (')
0x0C76            0x20 ( )
0x0C77            0x29 ())
0x0C78            0x2E (.)
0x0C79            0x3B (;)
0x0C7A            0x3C (<)
0x0C7B            0x35 (5)
0x0C7C            0x32 (2)
0x0C7D            0x1F
0x0C7E            0x18
0x0C7F            0x11
0x0C80            0x16
0x0C81            0x03
0x0C82            0x04
0x0C83            0x0D
0x0C84            0x0A
0x0C85            0x57 (W)
0x0C86            0x50 (P)
0x0C87            0x59 (Y)
0x0C88            0x5E (^)
0x0C89            0x4B (K)
0x0C8A            0x4C (L)
0x0C8B            0x45 (E)
0x0C8C            0x42 (B)
0x0C8D            0x6F (o)
0x0C8E            0x68 (h)
0x0C8F            0x61 (a)
0x0C90            0x66 (f)
0x0C91            0x73 (s)
0x0C92            0x74 (t)
0x0C93            0x7D (})
0x0C94            0x7A (z)
0x0C95            0x89
0x0C96            0x8E
0x0C97            0x87
0x0C98            0x80
0x0C99            0x95
0x0C9A            0x92
0x0C9B            0x9B
0x0C9C            0x9C
0x0C9D            0xB1
0x0C9E            0xB6
0x0C9F            0xBF
0x0CA0            0xB8
0x0CA1            0xAD
0x0CA2            0xAA
0x0CA3            0xA3
0x0CA4            0xA4
0x0CA5            0xF9
0x0CA6            0xFE
0x0CA7            0xF7
0x0CA8            0xF0
0x0CA9            0xE5
0x0CAA            0xE2
0x0CAB            0xEB
0x0CAC            0xEC
0x0CAD            0xC1
0x0CAE            0xC6
0x0CAF            0xCF
0x0CB0            0xC8
0x0CB1            0xDD
0x0CB2            0xDA
0x0CB3            0xD3
0x0CB4            0xD4
0x0CB5            0x69 (i)
0x0CB6            0x6E (n)
0x0CB7            0x67 (g)
0x0CB8            0x60 (`)
0x0CB9            0x75 (u)
0x0CBA            0x72 (r)
0x0CBB            0x7B ({)
0x0CBC            0x7C (|)
0x0CBD            0x51 (Q)
0x0CBE            0x56 (V)
0x0CBF            0x5F (_)
0x0CC0            0x58 (X)
0x0CC1            0x4D (M)
0x0CC2            0x4A (J)
0x0CC3            0x43 (C)
0x0CC4            0x44 (D)
0x0CC5            0x19
0x0CC6            0x1E
0x0CC7            0x17
0x0CC8            0x10
0x0CC9            0x05
0x0CCA            0x02
0x0CCB            0x0B
0x0CCC            0x0C
0x0CCD            0x21 (!)
0x0CCE            0x26 (&)
0x0CCF            0x2F (/)
0x0CD0            0x28 (()
0x0CD1            0x3D (=)
0x0CD2            0x3A (:)
0x0CD3            0x33 (3)
0x0CD4            0x34 (4)
0x0CD5            0x4E (N)
0x0CD6            0x49 (I)
0x0CD7            0x40 (@)
0x0CD8            0x47 (G)
0x0CD9            0x52 (R)
0x0CDA            0x55 (U)
0x0CDB            0x5C (\)
0x0CDC            0x5B ([)
0x0CDD            0x76 (v)
0x0CDE            0x71 (q)
0x0CDF            0x78 (x)
0x0CE0            0x7F ()
0x0CE1            0x6A (j)
0x0CE2            0x6D (m)
0x0CE3            0x64 (d)
0x0CE4            0x63 (c)
0x0CE5            0x3E (>)
0x0CE6            0x39 (9)
0x0CE7            0x30 (0)
0x0CE8            0x37 (7)
0x0CE9            0x22 (")
0x0CEA            0x25 (%)
0x0CEB            0x2C (,)
0x0CEC            0x2B (+)
0x0CED            0x06
0x0CEE            0x01
0x0CEF            0x08
0x0CF0            0x0F
0x0CF1            0x1A
0x0CF2            0x1D
0x0CF3            0x14
0x0CF4            0x13
0x0CF5            0xAE
0x0CF6            0xA9
0x0CF7            0xA0
0x0CF8            0xA7
0x0CF9            0xB2
0x0CFA            0xB5
0x0CFB            0xBC
0x0CFC            0xBB
0x0CFD            0x96
0x0CFE            0x91
0x0CFF            0x98
0x0D00            0x9F
0x0D01            0x8A
0x0D02            0x8D
0x0D03            0x84
0x0D04            0x83
0x0D05            0xDE
0x0D06            0xD9
0x0D07            0xD0
0x0D08            0xD7
0x0D09            0xC2
0x0D0A            0xC5
0x0D0B            0xCC
0x0D0C            0xCB
0x0D0D            0xE6
0x0D0E            0xE1
0x0D0F            0xE8
0x0D10            0xEF
0x0D11            0xFA
0x0D12            0xFD
0x0D13            0xF4
0x0D14            0xF3
0x0D15            0xFF
0x0D16            0x10
0x0D17            0x2A (*)
0x0D18            0xFF
0x0D19            0x0F
0x0D1A            0x27 (')
0x0D1B            0xFF
0x0D1C            0x11
0x0D1D            0x54 (T)
0x0D1E            0xFF
0x0D1F            0x10
0x0D20            0xB8
0x0D21            0xFF
0x0D22            0x11
0x0D23            0x75 (u)
0x0D24            0xFF
0x0D25            0x11
0x0D26            0xEB
0x0D27            0xFF
0x0D28            0x12
0x0D29            0x79 (y)
0x0D2A            0xFF
0x0D2B            0x10
0x0D2C            0x5E (^)

; Jump Target - Callers: 0C00 
0x0D2D 78 7F      MOV R0,  #0x7F
0x0D2F E4         CLR A 

; Jump Target - Callers: 0D31 
0x0D30 F6         MOV @R0, A 
0x0D31 D8 FD      DJNZ R0,  0x0D30
0x0D33 75 81 42   MOV  SP, #0x42
0x0D36 02 0D 74   LJMP  0x0D74

; Jump Target - Callers: 0D7B 
0x0D39 02 11 B5   LJMP  0x11B5

; Jump Target - Callers: 0D92 
0x0D3C E4         CLR A 
0x0D3D 93         MOVC A, @A+DPTR 
0x0D3E A3         INC DPTR 
0x0D3F F8         MOV R0, A 

; Jump Target - Callers: 0D4A 
0x0D40 E4         CLR A 
0x0D41 93         MOVC A, @A+DPTR 
0x0D42 A3         INC DPTR 
0x0D43 40 03      JC  0x0D48
0x0D45 F6         MOV @R0, A 
0x0D46 80 01      SJMP  0x0D49

; Jump Target - Callers: 0D43 
0x0D48 F2         MOVX @R0, A 

; Jump Target - Callers: 0D46 
0x0D49 08         INC R0 
0x0D4A DF F4      DJNZ R7,  0x0D40
0x0D4C 80 29      SJMP  0x0D77

; Jump Target - Callers: 0D94 0D68 
0x0D4E E4         CLR A 
0x0D4F 93         MOVC A, @A+DPTR 
0x0D50 A3         INC DPTR 
0x0D51 F8         MOV R0, A 
0x0D52 54 07      ANL A,  #0x07
0x0D54 24 0C      ADD A,  #0x0C
0x0D56 C8         XCH A, R0 
0x0D57 C3         CLR C 
0x0D58 33         RLC A 
0x0D59 C4         SWAP A 
0x0D5A 54 0F      ANL A,  #0x0F
0x0D5C 44 20      ORL A,  #0x20
0x0D5E C8         XCH A, R0 
0x0D5F 83         MOVC A, @A+PC 
0x0D60 40 04      JC  0x0D66
0x0D62 F4         CPL A 
0x0D63 56         ANL A, @R0 
0x0D64 80 01      SJMP  0x0D67

; Jump Target - Callers: 0D60 
0x0D66 46         ORL A, @R0 

; Jump Target - Callers: 0D64 
0x0D67 F6         MOV @R0, A 
0x0D68 DF E4      DJNZ R7,  0x0D4E
0x0D6A 80 0B      SJMP  0x0D77

; Data in FLASH Space
0x0D6C            0x01
0x0D6D            0x02
0x0D6E            0x04
0x0D6F            0x08
0x0D70            0x10
0x0D71            0x20 ( )
0x0D72            0x40 (@)
0x0D73            0x80

; Jump Target - Callers: 0D36 
0x0D74 90 12 45   MOV DPTR,  #0x1245

; Jump Target - Callers: 0D4C 0D6A 0DB7 
0x0D77 E4         CLR A 
0x0D78 7E 01      MOV R6,  #0x01
0x0D7A 93         MOVC A, @A+DPTR 
0x0D7B 60 BC      JZ  0x0D39
0x0D7D A3         INC DPTR 
0x0D7E FF         MOV R7, A 
0x0D7F 54 3F      ANL A,  #0x3F
0x0D81 30 E5 09   JNB  ACC.5, 0x0D8D
0x0D84 54 1F      ANL A,  #0x1F
0x0D86 FE         MOV R6, A 
0x0D87 E4         CLR A 
0x0D88 93         MOVC A, @A+DPTR 
0x0D89 A3         INC DPTR 
0x0D8A 60 01      JZ  0x0D8D
0x0D8C 0E         INC R6 

; Jump Target - Callers: 0D81 0D8A 
0x0D8D CF         XCH A, R7 
0x0D8E 54 C0      ANL A,  #0xC0
0x0D90 25 E0      ADD A,  ACC
0x0D92 60 A8      JZ  0x0D3C
0x0D94 40 B8      JC  0x0D4E
0x0D96 E4         CLR A 
0x0D97 93         MOVC A, @A+DPTR 
0x0D98 A3         INC DPTR 
0x0D99 FA         MOV R2, A 
0x0D9A E4         CLR A 
0x0D9B 93         MOVC A, @A+DPTR 
0x0D9C A3         INC DPTR 
0x0D9D F8         MOV R0, A 

; Jump Target - Callers: 0DB3 0DB5 
0x0D9E E4         CLR A 
0x0D9F 93         MOVC A, @A+DPTR 
0x0DA0 A3         INC DPTR 
0x0DA1 C8         XCH A, R0 
0x0DA2 C5 82      XCH A,  DPL
0x0DA4 C8         XCH A, R0 
0x0DA5 CA         XCH A, R2 
0x0DA6 C5 83      XCH A,  DPH
0x0DA8 CA         XCH A, R2 
0x0DA9 F0         MOVX @DPTR, A 
0x0DAA A3         INC DPTR 
0x0DAB C8         XCH A, R0 
0x0DAC C5 82      XCH A,  DPL
0x0DAE C8         XCH A, R0 
0x0DAF CA         XCH A, R2 
0x0DB0 C5 83      XCH A,  DPH
0x0DB2 CA         XCH A, R2 
0x0DB3 DF E9      DJNZ R7,  0x0D9E
0x0DB5 DE E7      DJNZ R6,  0x0D9E
0x0DB7 80 BE      SJMP  0x0D77

; Jump Target - Callers: 0C0F 
0x0DB9 C0 E0      PUSH  ACC
0x0DBB C0 F0      PUSH  B
0x0DBD C0 83      PUSH  DPH
0x0DBF C0 82      PUSH  DPL
0x0DC1 C0 D0      PUSH  PSW
0x0DC3 75 D0 00   MOV  PSW, #0x00
0x0DC6 C0 00      PUSH  X00h
0x0DC8 C0 01      PUSH  X01h
0x0DCA C0 02      PUSH  X02h
0x0DCC C0 03      PUSH  X03h
0x0DCE C0 04      PUSH  X04h
0x0DD0 C0 05      PUSH  X05h
0x0DD2 C0 06      PUSH  X06h
0x0DD4 C0 07      PUSH  X07h
0x0DD6 30 99 05   JNB  SCON.1, 0x0DDE
0x0DD9 75 2B 00   MOV  X2Bh, #0x00
0x0DDC C2 99      CLR  SCON.1

; Jump Target - Callers: 0DD6 
0x0DDE 30 98 30   JNB  SCON.0, 0x0E11
0x0DE1 85 99 2A   MOV  X2Ah, SBUF
0x0DE4 E5 2C      MOV A,  X2Ch
0x0DE6 60 21      JZ  0x0E09
0x0DE8 E5 2B      MOV A,  X2Bh
0x0DEA 60 05      JZ  0x0DF1

; Jump Target - Callers: 0DEC 
0x0DEC 30 99 FD   JNB  SCON.1, 0x0DEC
0x0DEF C2 99      CLR  SCON.1

; Jump Target - Callers: 0DEA 
0x0DF1 E5 2D      MOV A,  X2Dh
0x0DF3 60 0D      JZ  0x0E02
0x0DF5 E5 2A      MOV A,  X2Ah
0x0DF7 54 FE      ANL A,  #0xFE
0x0DF9 70 07      JNZ  0x0E02
0x0DFB E5 2A      MOV A,  X2Ah
0x0DFD 44 80      ORL A,  #0x80
0x0DFF FF         MOV R7, A 
0x0E00 80 02      SJMP  0x0E04

; Jump Target - Callers: 0DF3 0DF9 
0x0E02 AF 2A      MOV R7,  X2Ah

; Jump Target - Callers: 0E00 
0x0E04 8F 99      MOV  SBUF, R7
0x0E06 75 2B 01   MOV  X2Bh, #0x01

; Jump Target - Callers: 0DE6 
0x0E09 75 29 01   MOV  X29h, #0x01
0x0E0C C2 98      CLR  SCON.0
0x0E0E 12 12 95   LCALL  0x1295

; Jump Target - Callers: 0DDE 
0x0E11 D0 07      POP  X07h
0x0E13 D0 06      POP  X06h
0x0E15 D0 05      POP  X05h
0x0E17 D0 04      POP  X04h
0x0E19 D0 03      POP  X03h
0x0E1B D0 02      POP  X02h
0x0E1D D0 01      POP  X01h
0x0E1F D0 00      POP  X00h
0x0E21 D0 D0      POP  PSW
0x0E23 D0 82      POP  DPL
0x0E25 D0 83      POP  DPH
0x0E27 D0 F0      POP  B
0x0E29 D0 E0      POP  ACC
0x0E2B 32         RETI 

; Jump Target - Callers: 0FDD 0EAA 1013 
0x0E2C BB 01 0C   CJNE R3,  #0x01, 0x0E3B
0x0E2F E5 82      MOV A,  DPL
0x0E31 29         ADD A, R1 
0x0E32 F5 82      MOV  DPL, A
0x0E34 E5 83      MOV A,  DPH
0x0E36 3A         ADDC A, R2 
0x0E37 F5 83      MOV  DPH, A
0x0E39 E0         MOVX A, @DPTR 
0x0E3A 22         RET 

; Jump Target - Callers: 0E2C 
0x0E3B 50 06      JNC  0x0E43
0x0E3D E9         MOV A, R1 
0x0E3E 25 82      ADD A,  DPL
0x0E40 F8         MOV R0, A 
0x0E41 E6         MOV A, @R0 
0x0E42 22         RET 

; Jump Target - Callers: 0E3B 
0x0E43 BB FE 06   CJNE R3,  #0xFE, 0x0E4C
0x0E46 E9         MOV A, R1 
0x0E47 25 82      ADD A,  DPL
0x0E49 F8         MOV R0, A 
0x0E4A E2         MOVX, A, @R0 
0x0E4B 22         RET 

; Jump Target - Callers: 0E43 
0x0E4C E5 82      MOV A,  DPL
0x0E4E 29         ADD A, R1 
0x0E4F F5 82      MOV  DPL, A
0x0E51 E5 83      MOV A,  DPH
0x0E53 3A         ADDC A, R2 
0x0E54 F5 83      MOV  DPH, A
0x0E56 E4         CLR A 
0x0E57 93         MOVC A, @A+DPTR 
0x0E58 22         RET 

; Jump Target - Callers: 0F1C 
0x0E59 BB 01 06   CJNE R3,  #0x01, 0x0E62
0x0E5C 89 82      MOV  DPL, R1
0x0E5E 8A 83      MOV  DPH, R2
0x0E60 F0         MOVX @DPTR, A 
0x0E61 22         RET 

; Jump Target - Callers: 0E59 
0x0E62 50 02      JNC  0x0E66
0x0E64 F7         MOV @R1, A 
0x0E65 22         RET 

; Jump Target - Callers: 0E62 
0x0E66 BB FE 01   CJNE R3,  #0xFE, 0x0E6A
0x0E69 F3         MOVX @R1, A 

; Jump Target - Callers: 0E66 
0x0E6A 22         RET 

; Jump Target - Callers: 1239 0F08 
0x0E6B EB         MOV A, R3 
0x0E6C 9F         SUBB A, R7 
0x0E6D F5 F0      MOV  B, A
0x0E6F EA         MOV A, R2 
0x0E70 9E         SUBB A, R6 
0x0E71 42 F0      ORL  B, A
0x0E73 E9         MOV A, R1 
0x0E74 9D         SUBB A, R5 
0x0E75 42 F0      ORL  B, A
0x0E77 E8         MOV A, R0 
0x0E78 9C         SUBB A, R4 
0x0E79 45 F0      ORL A,  B
0x0E7B 22         RET 

; Jump Target - Callers: 1105 
0x0E7C 8A 83      MOV  DPH, R2
0x0E7E 89 82      MOV  DPL, R1
0x0E80 E4         CLR A 
0x0E81 73         JMP @A+DPTR 

; Jump Target - Callers: 1281 
0x0E82 8B 2F      MOV  X2Fh, R3
0x0E84 8A 30      MOV  X30h, R2
0x0E86 89 31      MOV  X31h, R1
0x0E88 E4         CLR A 
0x0E89 F5 33      MOV  X33h, A
0x0E8B FF         MOV R7, A 
0x0E8C 12 12 BF   LCALL  0x12BF
0x0E8F 7F 01      MOV R7,  #0x01
0x0E91 12 12 9F   LCALL  0x129F
0x0E94 AB 2F      MOV R3,  X2Fh
0x0E96 AA 30      MOV R2,  X30h
0x0E98 A9 31      MOV R1,  X31h
0x0E9A 7D 03      MOV R5,  #0x03
0x0E9C 7C 00      MOV R4,  #0x00
0x0E9E 12 0F B6   LCALL  0x0FB6

; Jump Target - Callers: 0ECA 
0x0EA1 AB 2F      MOV R3,  X2Fh
0x0EA3 AA 30      MOV R2,  X30h
0x0EA5 A9 31      MOV R1,  X31h
0x0EA7 90 00 02   MOV DPTR,  #0x0002
0x0EAA 12 0E 2C   LCALL  0x0E2C
0x0EAD 24 01      ADD A,  #0x01
0x0EAF FF         MOV R7, A 
0x0EB0 E4         CLR A 
0x0EB1 33         RLC A 
0x0EB2 FE         MOV R6, A 
0x0EB3 C3         CLR C 
0x0EB4 E5 33      MOV A,  X33h
0x0EB6 9F         SUBB A, R7 
0x0EB7 EE         MOV A, R6 
0x0EB8 64 80      XRL A,  #0x80
0x0EBA F8         MOV R0, A 
0x0EBB 74 80      MOV A,  #0x80
0x0EBD 98         SUBB A, R0 
0x0EBE 50 0C      JNC  0x0ECC
0x0EC0 12 11 96   LCALL  0x1196
0x0EC3 8F 32      MOV  X32h, R7
0x0EC5 12 12 69   LCALL  0x1269
0x0EC8 05 33      INC  X33h
0x0ECA 80 D5      SJMP  0x0EA1

; Jump Target - Callers: 0EBE 
0x0ECC E4         CLR A 
0x0ECD FF         MOV R7, A 
0x0ECE 12 12 9F   LCALL  0x129F
0x0ED1 7F 01      MOV R7,  #0x01
0x0ED3 12 12 BF   LCALL  0x12BF
0x0ED6 22         RET 

; Jump Target - Callers: 0F3A 1162 10C6 1183 
0x0ED7 8B 16      MOV  X16h, R3
0x0ED9 8A 17      MOV  X17h, R2
0x0EDB 89 18      MOV  X18h, R1
0x0EDD 8F 1C      MOV  X1Ch, R7
0x0EDF 8E 1B      MOV  X1Bh, R6
0x0EE1 8D 1A      MOV  X1Ah, R5
0x0EE3 8C 19      MOV  X19h, R4
0x0EE5 12 12 95   LCALL  0x1295

; Jump Target - Callers: 0EF8 0F0B 
0x0EE8 E5 29      MOV A,  X29h
0x0EEA 70 24      JNZ  0x0F10
0x0EEC AF 1C      MOV R7,  X1Ch
0x0EEE AE 1B      MOV R6,  X1Bh
0x0EF0 AD 1A      MOV R5,  X1Ah
0x0EF2 AC 19      MOV R4,  X19h
0x0EF4 12 12 30   LCALL  0x1230
0x0EF7 EF         MOV A, R7 
0x0EF8 60 EE      JZ  0x0EE8
0x0EFA E4         CLR A 
0x0EFB FF         MOV R7, A 
0x0EFC FE         MOV R6, A 
0x0EFD FD         MOV R5, A 
0x0EFE FC         MOV R4, A 
0x0EFF AB 1C      MOV R3,  X1Ch
0x0F01 AA 1B      MOV R2,  X1Bh
0x0F03 A9 1A      MOV R1,  X1Ah
0x0F05 A8 19      MOV R0,  X19h
0x0F07 C3         CLR C 
0x0F08 12 0E 6B   LCALL  0x0E6B
0x0F0B 60 DB      JZ  0x0EE8
0x0F0D 7F 02      MOV R7,  #0x02
0x0F0F 22         RET 

; Jump Target - Callers: 0EEA 
0x0F10 C2 AF      CLR  IE.7
0x0F12 C2 AF      CLR  IE.7
0x0F14 AB 16      MOV R3,  X16h
0x0F16 AA 17      MOV R2,  X17h
0x0F18 A9 18      MOV R1,  X18h
0x0F1A E5 2A      MOV A,  X2Ah
0x0F1C 12 0E 59   LCALL  0x0E59
0x0F1F E4         CLR A 
0x0F20 F5 29      MOV  X29h, A
0x0F22 D2 AF      SETB  IE.7
0x0F24 7F 01      MOV R7,  #0x01
0x0F26 22         RET 

; Jump Target - Callers: 
0x0F27 7F 01      MOV R7,  #0x01
0x0F29 12 12 B9   LCALL  0x12B9
0x0F2C 7B 00      MOV R3,  #0x00
0x0F2E 7A 00      MOV R2,  #0x00
0x0F30 79 3D      MOV R1,  #0x3D
0x0F32 7F 00      MOV R7,  #0x00
0x0F34 7E 00      MOV R6,  #0x00
0x0F36 7D 00      MOV R5,  #0x00
0x0F38 7C 00      MOV R4,  #0x00
0x0F3A 12 0E D7   LCALL  0x0ED7
0x0F3D EF         MOV A, R7 
0x0F3E 64 01      XRL A,  #0x01
0x0F40 60 07      JZ  0x0F49
0x0F42 E4         CLR A 
0x0F43 F5 1D      MOV  X1Dh, A
0x0F45 FF         MOV R7, A 
0x0F46 02 12 BC   LJMP  0x12BC

; Jump Target - Callers: 0F40 
0x0F49 D2 93      SETB  P1.3
0x0F4B E4         CLR A 
0x0F4C FF         MOV R7, A 
0x0F4D 12 12 BC   LCALL  0x12BC
0x0F50 E5 3D      MOV A,  X3Dh
0x0F52 54 FE      ANL A,  #0xFE
0x0F54 FF         MOV R7, A 
0x0F55 65 1E      XRL A,  X1Eh
0x0F57 60 03      JZ  0x0F5C
0x0F59 BF 7E 08   CJNE R7,  #0x7E, 0x0F64

; Jump Target - Callers: 0F57 
0x0F5C 85 3D 1F   MOV  X1Fh, X3Dh
0x0F5F 75 1D 02   MOV  X1Dh, #0x02
0x0F62 80 08      SJMP  0x0F6C

; Jump Target - Callers: 0F59 
0x0F64 E5 3D      MOV A,  X3Dh
0x0F66 54 C0      ANL A,  #0xC0
0x0F68 FF         MOV R7, A 
0x0F69 E4         CLR A 
0x0F6A F5 1D      MOV  X1Dh, A

; Jump Target - Callers: 0F62 
0x0F6C E4         CLR A 
0x0F6D FF         MOV R7, A 
0x0F6E 12 12 B9   LCALL  0x12B9
0x0F71 22         RET 

; Jump Target - Callers: 11C6 
0x0F72 E4         CLR A 
0x0F73 F5 0F      MOV  X0Fh, A
0x0F75 F5 13      MOV  X13h, A
0x0F77 75 14 01   MOV  X14h, #0x01

; Jump Target - Callers: 0FB3 
0x0F7A E5 0F      MOV A,  X0Fh
0x0F7C 25 E0      ADD A,  ACC
0x0F7E F5 12      MOV  X12h, A
0x0F80 7F 01      MOV R7,  #0x01
0x0F82 12 12 9F   LCALL  0x129F
0x0F85 7B 00      MOV R3,  #0x00
0x0F87 7A 00      MOV R2,  #0x00
0x0F89 79 12      MOV R1,  #0x12
0x0F8B 7D 03      MOV R5,  #0x03
0x0F8D 7C 00      MOV R4,  #0x00
0x0F8F 12 0F B6   LCALL  0x0FB6
0x0F92 12 11 96   LCALL  0x1196
0x0F95 8F 10      MOV  X10h, R7
0x0F97 12 11 96   LCALL  0x1196
0x0F9A 8F 11      MOV  X11h, R7
0x0F9C E4         CLR A 
0x0F9D FF         MOV R7, A 
0x0F9E 12 12 9F   LCALL  0x129F
0x0FA1 E5 11      MOV A,  X11h
0x0FA3 60 07      JZ  0x0FAC
0x0FA5 E5 0F      MOV A,  X0Fh
0x0FA7 25 E0      ADD A,  ACC
0x0FA9 F5 1E      MOV  X1Eh, A
0x0FAB 22         RET 

; Jump Target - Callers: 0FA3 
0x0FAC 05 0F      INC  X0Fh
0x0FAE E5 0F      MOV A,  X0Fh
0x0FB0 C3         CLR C 
0x0FB1 94 11      SUBB A,  #0x11
0x0FB3 40 C5      JC  0x0F7A
0x0FB5 22         RET 

; Jump Target - Callers: 0F8F 0E9E 10A3 
0x0FB6 8B 34      MOV  X34h, R3
0x0FB8 8A 35      MOV  X35h, R2
0x0FBA 89 36      MOV  X36h, R1
0x0FBC 8C 37      MOV  X37h, R4
0x0FBE 8D 38      MOV  X38h, R5
0x0FC0 E4         CLR A 
0x0FC1 FF         MOV R7, A 
0x0FC2 FE         MOV R6, A 
0x0FC3 C2 AF      CLR  IE.7
0x0FC5 C2 AF      CLR  IE.7

; Jump Target - Callers: 0FE7 
0x0FC7 C3         CLR C 
0x0FC8 EF         MOV A, R7 
0x0FC9 95 38      SUBB A,  X38h
0x0FCB EE         MOV A, R6 
0x0FCC 95 37      SUBB A,  X37h
0x0FCE 50 19      JNC  0x0FE9

; Jump Target - Callers: 0FD0 
0x0FD0 30 F9 FD   JNB  SPICN.1, 0x0FD0
0x0FD3 AB 34      MOV R3,  X34h
0x0FD5 AA 35      MOV R2,  X35h
0x0FD7 A9 36      MOV R1,  X36h
0x0FD9 8F 82      MOV  DPL, R7
0x0FDB 8E 83      MOV  DPH, R6
0x0FDD 12 0E 2C   LCALL  0x0E2C
0x0FE0 F5 A3      MOV  SPIDAT, A
0x0FE2 0F         INC R7 
0x0FE3 BF 00 01   CJNE R7,  #0x00, 0x0FE7
0x0FE6 0E         INC R6 

; Jump Target - Callers: 0FE3 
0x0FE7 80 DE      SJMP  0x0FC7

; Jump Target - Callers: 0FCE 0FEB 
0x0FE9 E5 A1      MOV A,  SPICFG
0x0FEB 20 E7 FB   JB  ACC.7, 0x0FE9
0x0FEE D2 AF      SETB  IE.7
0x0FF0 22         RET 

; Jump Target - Callers: 11F5 
0x0FF1 8B 08      MOV  X08h, R3
0x0FF3 8A 09      MOV  X09h, R2
0x0FF5 89 0A      MOV  X0Ah, R1
0x0FF7 8C 0B      MOV  X0Bh, R4
0x0FF9 8D 0C      MOV  X0Ch, R5
0x0FFB E4         CLR A 
0x0FFC F5 0D      MOV  X0Dh, A
0x0FFE FF         MOV R7, A 
0x0FFF FE         MOV R6, A 

; Jump Target - Callers: 1025 
0x1000 C3         CLR C 
0x1001 EF         MOV A, R7 
0x1002 95 0C      SUBB A,  X0Ch
0x1004 EE         MOV A, R6 
0x1005 95 0B      SUBB A,  X0Bh
0x1007 50 1E      JNC  0x1027
0x1009 AB 08      MOV R3,  X08h
0x100B AA 09      MOV R2,  X09h
0x100D A9 0A      MOV R1,  X0Ah
0x100F 8F 82      MOV  DPL, R7
0x1011 8E 83      MOV  DPH, R6
0x1013 12 0E 2C   LCALL  0x0E2C
0x1016 65 0D      XRL A,  X0Dh
0x1018 F5 0E      MOV  X0Eh, A
0x101A 90 0C 15   MOV DPTR,  #0x0C15
0x101D 93         MOVC A, @A+DPTR 
0x101E F5 0D      MOV  X0Dh, A
0x1020 0F         INC R7 
0x1021 BF 00 01   CJNE R7,  #0x00, 0x1025
0x1024 0E         INC R6 

; Jump Target - Callers: 1021 
0x1025 80 D9      SJMP  0x1000

; Jump Target - Callers: 1007 
0x1027 AF 0D      MOV R7,  X0Dh
0x1029 22         RET 

; Data in FLASH Space
0x102A            0x7F ()
0x102B            0x01
0x102C            0x12
0x102D            0x12
0x102E            0xB9
0x102F            0xC2
0x1030            0x93
0x1031            0xE4
0x1032            0xF5
0x1033            0x1F
0x1034            0xF5
0x1035            0x20 ( )
0x1036            0xF5
0x1037            0x21 (!)
0x1038            0xF5
0x1039            0x22 (")
0x103A            0x7F ()
0x103B            0x0A
0x103C            0x7E (~)
0x103D            0x00
0x103E            0x7D (})
0x103F            0x00
0x1040            0x7C (|)
0x1041            0x00
0x1042            0x12
0x1043            0x12
0x1044            0x30 (0)
0x1045            0xEF
0x1046            0x70 (p)
0x1047            0x05
0x1048            0x12
0x1049            0x12
0x104A            0xB5
0x104B            0x80
0x104C            0xED
0x104D            0xE5
0x104E            0x1E
0x104F            0x70 (p)
0x1050            0x05
0x1051            0x7F ()
0x1052            0x01
0x1053            0x12
0x1054            0x12
0x1055            0xBC
0x1056            0x75 (u)
0x1057            0x1D
0x1058            0x01
0x1059            0xE4
0x105A            0xFF
0x105B            0x02
0x105C            0x12
0x105D            0xB9
0x105E            0xC2
0x105F            0x93
0x1060            0xE5
0x1061            0x20 ( )
0x1062            0xB4
0x1063            0x3C (<)
0x1064            0x0A
0x1065            0xE5
0x1066            0x21 (!)
0x1067            0xB4
0x1068            0xA5
0x1069            0x05
0x106A            0xE4
0x106B            0xF5
0x106C            0x1E
0x106D            0x80
0x106E            0x0F
0x106F            0xE5
0x1070            0x20 ( )
0x1071            0xB4
0x1072            0x3B (;)
0x1073            0x0A
0x1074            0xE5
0x1075            0x21 (!)
0x1076            0x25 (%)
0x1077            0xE0
0x1078            0x54 (T)
0x1079            0x7E (~)
0x107A            0xF5
0x107B            0x41 (A)
0x107C            0xF5
0x107D            0x1E
0x107E            0x7B ({)
0x107F            0x00
0x1080            0x7A (z)
0x1081            0x00
0x1082            0x79 (y)
0x1083            0x1F
0x1084            0x12
0x1085            0x10
0x1086            0x8B
0x1087            0xE4
0x1088            0xF5
0x1089            0x1D
0x108A            0x22 (")
0x108B            0x8B
0x108C            0x39 (9)
0x108D            0x8A
0x108E            0x3A (:)
0x108F            0x89
0x1090            0x3B (;)
0x1091            0xE4
0x1092            0xF5
0x1093            0x3C (<)
0x1094            0x7F ()
0x1095            0x01
0x1096            0x12
0x1097            0x12
0x1098            0x9F
0x1099            0xAB
0x109A            0x39 (9)
0x109B            0xAA
0x109C            0x3A (:)
0x109D            0xA9
0x109E            0x3B (;)
0x109F            0x7D (})
0x10A0            0x04
0x10A1            0x7C (|)

; Jump Target - Callers: 
0x10A2 00         NOP 
0x10A3 12 0F B6   LCALL  0x0FB6

; Jump Target - Callers: 10B0 
0x10A6 E5 3C      MOV A,  X3Ch
0x10A8 C3         CLR C 
0x10A9 94 00      SUBB A,  #0x00
0x10AB 50 05      JNC  0x10B2
0x10AD 00         NOP 
0x10AE 05 3C      INC  X3Ch
0x10B0 80 F4      SJMP  0x10A6

; Jump Target - Callers: 10AB 
0x10B2 E4         CLR A 
0x10B3 FF         MOV R7, A 
0x10B4 12 12 9F   LCALL  0x129F
0x10B7 22         RET 

; Jump Target - Callers: 
0x10B8 7B 00      MOV R3,  #0x00
0x10BA 7A 00      MOV R2,  #0x00
0x10BC 79 3F      MOV R1,  #0x3F
0x10BE 7F 0A      MOV R7,  #0x0A
0x10C0 7E 00      MOV R6,  #0x00
0x10C2 7D 00      MOV R5,  #0x00
0x10C4 7C 00      MOV R4,  #0x00
0x10C6 12 0E D7   LCALL  0x0ED7
0x10C9 EF         MOV A, R7 
0x10CA 64 01      XRL A,  #0x01
0x10CC 60 04      JZ  0x10D2
0x10CE E4         CLR A 
0x10CF F5 1D      MOV  X1Dh, A
0x10D1 22         RET 

; Jump Target - Callers: 10CC 
0x10D2 85 3F 21   MOV  X21h, X3Fh
0x10D5 E5 1F      MOV A,  X1Fh
0x10D7 30 E0 04   JNB  ACC.0, 0x10DE
0x10DA 7F 04      MOV R7,  #0x04
0x10DC 80 02      SJMP  0x10E0

; Jump Target - Callers: 10D7 
0x10DE 7F 06      MOV R7,  #0x06

; Jump Target - Callers: 10DC 
0x10E0 8F 1D      MOV  X1Dh, R7
0x10E2 22         RET 

; Jump Target - Callers: 11CE 
0x10E3 E4         CLR A 
0x10E4 F5 1F      MOV  X1Fh, A
0x10E6 F5 20      MOV  X20h, A
0x10E8 F5 21      MOV  X21h, A
0x10EA F5 22      MOV  X22h, A
0x10EC F5 1D      MOV  X1Dh, A

; Jump Target - Callers: 1108 
0x10EE E5 1D      MOV A,  X1Dh
0x10F0 75 F0 03   MOV  B, #0x03
0x10F3 A4         MUL AB 
0x10F4 24 15      ADD A,  #0x15
0x10F6 F5 82      MOV  DPL, A
0x10F8 E4         CLR A 
0x10F9 34 0D      ADDC A,  #0x0D
0x10FB F5 83      MOV  DPH, A
0x10FD 74 01      MOV A,  #0x01
0x10FF 93         MOVC A, @A+DPTR 
0x1100 FA         MOV R2, A 
0x1101 74 02      MOV A,  #0x02
0x1103 93         MOVC A, @A+DPTR 
0x1104 F9         MOV R1, A 
0x1105 12 0E 7C   LCALL  0x0E7C
0x1108 80 E4      SJMP  0x10EE

; Jump Target - Callers: 0C12 
0x110A C0 E0      PUSH  ACC
0x110C C0 D0      PUSH  PSW
0x110E E5 27      MOV A,  X27h
0x1110 60 03      JZ  0x1115
0x1112 75 EC FF   MOV  PCACPH2, #0xFF

; Jump Target - Callers: 1110 
0x1115 E5 26      MOV A,  X26h
0x1117 24 01      ADD A,  #0x01
0x1119 F5 26      MOV  X26h, A
0x111B E4         CLR A 
0x111C 35 25      ADDC A,  X25h
0x111E F5 25      MOV  X25h, A
0x1120 E4         CLR A 
0x1121 35 24      ADDC A,  X24h
0x1123 F5 24      MOV  X24h, A
0x1125 E4         CLR A 
0x1126 35 23      ADDC A,  X23h
0x1128 F5 23      MOV  X23h, A
0x112A C2 CF      CLR  TMP2CN.7
0x112C D0 D0      POP  PSW
0x112E D0 E0      POP  ACC
0x1130 32         RETI 

; Jump Target - Callers: 11BA 1207 
0x1131 E5 28      MOV A,  X28h
0x1133 70 1E      JNZ  0x1153
0x1135 D2 8E      SETB  TCON.6
0x1137 75 89 20   MOV  TMOD, #0x20
0x113A 75 8D EC   MOV  TH1, #0xEC
0x113D 75 8E 18   MOV  CKCON, #0x18
0x1140 D2 CA      SETB  TMP2CN.2
0x1142 C2 CB      CLR  TMP2CN.3
0x1144 75 CA 6F   MOV  TMR2RLL, #0x6F
0x1147 75 CB FE   MOV  TMR2RLH, #0xFE
0x114A 75 CC 6F   MOV  TMP2L, #0x6F
0x114D 75 CD FE   MOV  TMR2H, #0xFE
0x1150 75 28 01   MOV  X28h, #0x01

; Jump Target - Callers: 1133 
0x1153 22         RET 

; Jump Target - Callers: 
0x1154 7B 00      MOV R3,  #0x00
0x1156 7A 00      MOV R2,  #0x00
0x1158 79 3E      MOV R1,  #0x3E
0x115A 7F 0A      MOV R7,  #0x0A
0x115C 7E 00      MOV R6,  #0x00
0x115E 7D 00      MOV R5,  #0x00
0x1160 7C 00      MOV R4,  #0x00
0x1162 12 0E D7   LCALL  0x0ED7
0x1165 EF         MOV A, R7 
0x1166 64 01      XRL A,  #0x01
0x1168 60 04      JZ  0x116E
0x116A E4         CLR A 
0x116B F5 1D      MOV  X1Dh, A
0x116D 22         RET 

; Jump Target - Callers: 1168 
0x116E 85 3E 20   MOV  X20h, X3Eh
0x1171 75 1D 03   MOV  X1Dh, #0x03
0x1174 22         RET 

; Jump Target - Callers: 
0x1175 7B 00      MOV R3,  #0x00
0x1177 7A 00      MOV R2,  #0x00
0x1179 79 40      MOV R1,  #0x40
0x117B 7F 0A      MOV R7,  #0x0A
0x117D 7E 00      MOV R6,  #0x00
0x117F 7D 00      MOV R5,  #0x00
0x1181 7C 00      MOV R4,  #0x00
0x1183 12 0E D7   LCALL  0x0ED7
0x1186 EF         MOV A, R7 
0x1187 64 01      XRL A,  #0x01
0x1189 60 04      JZ  0x118F
0x118B E4         CLR A 
0x118C F5 1D      MOV  X1Dh, A
0x118E 22         RET 

; Jump Target - Callers: 1189 
0x118F 85 40 22   MOV  X22h, X40h
0x1192 75 1D 05   MOV  X1Dh, #0x05
0x1195 22         RET 

; Jump Target - Callers: 0F92 0F97 0EC0 
0x1196 C2 AF      CLR  IE.7
0x1198 C2 AF      CLR  IE.7

; Jump Target - Callers: 119C 
0x119A E5 A1      MOV A,  SPICFG
0x119C 20 E7 FB   JB  ACC.7, 0x119A
0x119F D2 AF      SETB  IE.7

; Jump Target - Callers: 11A1 
0x11A1 30 F9 FD   JNB  SPICN.1, 0x11A1
0x11A4 E4         CLR A 
0x11A5 F5 A3      MOV  SPIDAT, A
0x11A7 C2 AF      CLR  IE.7
0x11A9 C2 AF      CLR  IE.7

; Jump Target - Callers: 11AD 
0x11AB E5 A1      MOV A,  SPICFG
0x11AD 20 E7 FB   JB  ACC.7, 0x11AB
0x11B0 D2 AF      SETB  IE.7
0x11B2 AF A3      MOV R7,  SPIDAT
0x11B4 22         RET 

; Jump Target - Callers: 0D39 
0x11B5 12 12 59   LCALL  0x1259
0x11B8 D2 93      SETB  P1.3
0x11BA 12 11 31   LCALL  0x1131
0x11BD 12 12 03   LCALL  0x1203
0x11C0 12 12 1A   LCALL  0x121A
0x11C3 E4         CLR A 
0x11C4 F5 1E      MOV  X1Eh, A
0x11C6 12 0F 72   LCALL  0x0F72
0x11C9 12 12 A9   LCALL  0x12A9
0x11CC C2 93      CLR  P1.3
0x11CE 12 10 E3   LCALL  0x10E3
0x11D1 22         RET 

; Jump Target - Callers: 1263 
0x11D2 75 A5 FF   MOV  P1MDOUT, #0xFF
0x11D5 75 A4 9D   MOV  P0MDOUT, #0x9D
0x11D8 75 80 6A   MOV  P0, #0x6A
0x11DB 75 D5 FF   MOV  P1SKIP, #0xFF
0x11DE E4         CLR A 
0x11DF F5 90      MOV  P1, A
0x11E1 75 D4 F8   MOV  P0SKIP, #0xF8
0x11E4 75 E1 03   MOV  XBR0, #0x03
0x11E7 75 E2 C0   MOV  XBR1, #0xC0
0x11EA 22         RET 

; Jump Target - Callers: 
0x11EB 7B 00      MOV R3,  #0x00
0x11ED 7A 00      MOV R2,  #0x00
0x11EF 79 1F      MOV R1,  #0x1F
0x11F1 7D 04      MOV R5,  #0x04
0x11F3 7C 00      MOV R4,  #0x00
0x11F5 12 0F F1   LCALL  0x0FF1
0x11F8 EF         MOV A, R7 
0x11F9 60 04      JZ  0x11FF
0x11FB E4         CLR A 
0x11FC F5 1D      MOV  X1Dh, A
0x11FE 22         RET 

; Jump Target - Callers: 11F9 
0x11FF 75 1D 07   MOV  X1Dh, #0x07
0x1202 22         RET 

; Jump Target - Callers: 11BD 121E 
0x1203 E5 2E      MOV A,  X2Eh
0x1205 70 12      JNZ  0x1219
0x1207 12 11 31   LCALL  0x1131
0x120A C2 9F      CLR  SCON.7
0x120C D2 9D      SETB  SCON.5
0x120E C2 9C      CLR  SCON.4
0x1210 C2 98      CLR  SCON.0
0x1212 C2 99      CLR  SCON.1
0x1214 D2 9C      SETB  SCON.4
0x1216 75 2E 01   MOV  X2Eh, #0x01

; Jump Target - Callers: 1205 
0x1219 22         RET 

; Jump Target - Callers: 11C0 
0x121A E5 42      MOV A,  X42h
0x121C 70 11      JNZ  0x122F
0x121E 12 12 03   LCALL  0x1203
0x1221 75 A2 0C   MOV  SPICKR, #0x0C
0x1224 75 A1 60   MOV  SPICFG, #0x60
0x1227 E4         CLR A 
0x1228 F5 F8      MOV  SPICN, A
0x122A D2 F8      SETB  SPICN.0
0x122C 75 42 01   MOV  X42h, #0x01

; Jump Target - Callers: 121C 
0x122F 22         RET 

; Jump Target - Callers: 0EF4 
0x1230 AB 26      MOV R3,  X26h
0x1232 AA 25      MOV R2,  X25h
0x1234 A9 24      MOV R1,  X24h
0x1236 A8 23      MOV R0,  X23h
0x1238 D3         SETB C 
0x1239 12 0E 6B   LCALL  0x0E6B
0x123C 40 04      JC  0x1242
0x123E 7F 01      MOV R7,  #0x01
0x1240 80 02      SJMP  0x1244

; Jump Target - Callers: 123C 
0x1242 7F 00      MOV R7,  #0x00

; Jump Target - Callers: 1240 
0x1244 22         RET 

; Data in FLASH Space
0x1245            0x06
0x1246            0x23 (#)
0x1247            0x00
0x1248            0x00
0x1249            0x00
0x124A            0x00
0x124B            0x00
0x124C            0x00
0x124D            0x01
0x124E            0x42 (B)
0x124F            0x00
0x1250            0x06
0x1251            0x29 ())
0x1252            0x00
0x1253            0x00
0x1254            0x00
0x1255            0x01
0x1256            0x00
0x1257            0x00
0x1258            0x00

; Jump Target - Callers: 11B5 
0x1259 C2 AF      CLR  IE.7
0x125B C2 AF      CLR  IE.7
0x125D 12 12 88   LCALL  0x1288
0x1260 12 0C 03   LCALL  0x0C03
0x1263 12 11 D2   LCALL  0x11D2
0x1266 02 12 AD   LJMP  0x12AD

; Jump Target - Callers: 0EC5 126B 
0x1269 E5 2B      MOV A,  X2Bh
0x126B 70 FC      JNZ  0x1269
0x126D C2 AF      CLR  IE.7
0x126F C2 AF      CLR  IE.7
0x1271 8F 99      MOV  SBUF, R7
0x1273 75 2B 01   MOV  X2Bh, #0x01
0x1276 D2 AF      SETB  IE.7
0x1278 22         RET 

; Jump Target - Callers: 
0x1279 C2 93      CLR  P1.3
0x127B 7B 00      MOV R3,  #0x00
0x127D 7A 00      MOV R2,  #0x00
0x127F 79 1F      MOV R1,  #0x1F
0x1281 12 0E 82   LCALL  0x0E82
0x1284 E4         CLR A 
0x1285 F5 1D      MOV  X1Dh, A
0x1287 22         RET 

; Jump Target - Callers: 125D 
0x1288 E4         CLR A 
0x1289 FF         MOV R7, A 
0x128A 75 FF 80   MOV  VDDMON, #0x80

; Jump Target - Callers: 128E 
0x128D 0F         INC R7 
0x128E BF 14 FC   CJNE R7,  #0x14, 0x128D
0x1291 75 EF 02   MOV  RSTSRC, #0x02
0x1294 22         RET 

; Jump Target - Callers: 0E0E 0EE5 
0x1295 E4         CLR A 
0x1296 F5 26      MOV  X26h, A
0x1298 F5 25      MOV  X25h, A
0x129A F5 24      MOV  X24h, A
0x129C F5 23      MOV  X23h, A
0x129E 22         RET 

; Jump Target - Callers: 0F82 0F9E 0E91 0ECE 10B4 
0x129F EF         MOV A, R7 
0x12A0 60 03      JZ  0x12A5
0x12A2 C3         CLR C 
0x12A3 80 01      SJMP  0x12A6

; Jump Target - Callers: 12A0 
0x12A5 D3         SETB C 

; Jump Target - Callers: 12A3 
0x12A6 92 83      MOV  P0.3, C
0x12A8 22         RET 

; Jump Target - Callers: 11C9 
0x12A9 75 A8 B0   MOV  IE, #0xB0
0x12AC 22         RET 

; Jump Target - Callers: 1266 
0x12AD 75 B2 C7   MOV  OSCICN, #0xC7
0x12B0 22         RET 

; Data in FLASH Space
0x12B1            0x75 (u)
0x12B2            0xC9
0x12B3            0x40 (@)
0x12B4            0x22 (")
0x12B5            0xE4
0x12B6            0xF5
0x12B7            0x29 ())
0x12B8            0x22 (")

; Jump Target - Callers: 0F29 0F6E 
0x12B9 8F 27      MOV  X27h, R7
0x12BB 22         RET 

; Jump Target - Callers: 0F4D 0F46 
0x12BC 8F 2D      MOV  X2Dh, R7
0x12BE 22         RET 

; Jump Target - Callers: 0E8C 0ED3 
0x12BF 8F 2C      MOV  X2Ch, R7
0x12C1 22         RET 

; Data in FLASH Space
0x12C2            0xFF
0x12C3            0xFF
0x12C4            0xFF
0x12C5            0xFF
0x12C6            0xFF
0x12C7            0xFF
0x12C8            0xFF
0x12C9            0xFF
0x12CA            0xFF
0x12CB            0xFF
0x12CC            0xFF
0x12CD            0xFF
0x12CE            0xFF
0x12CF            0xFF
0x12D0            0xFF
0x12D1            0xFF
0x12D2            0xFF
0x12D3            0xFF
0x12D4            0xFF
0x12D5            0xFF
0x12D6            0xFF
0x12D7            0xFF
0x12D8            0xFF
0x12D9            0xFF
0x12DA            0xFF
0x12DB            0xFF
0x12DC            0xFF
0x12DD            0xFF
0x12DE            0xFF
0x12DF            0xFF
0x12E0            0xFF
0x12E1            0xFF
0x12E2            0xFF
0x12E3            0xFF
0x12E4            0xFF
0x12E5            0xFF
0x12E6            0xFF
0x12E7            0xFF
0x12E8            0xFF
0x12E9            0xFF
0x12EA            0xFF
0x12EB            0xFF
0x12EC            0xFF
0x12ED            0xFF
0x12EE            0xFF
0x12EF            0xFF
0x12F0            0xFF
0x12F1            0xFF
0x12F2            0xFF
0x12F3            0xFF
0x12F4            0xFF
0x12F5            0xFF
0x12F6            0xFF
0x12F7            0xFF
0x12F8            0xFF
0x12F9            0xFF
0x12FA            0xFF
0x12FB            0xFF
0x12FC            0xFF
0x12FD            0xFF
0x12FE            0xFF
0x12FF            0xFF
0x1300            0xFF
0x1301            0xFF
0x1302            0xFF
0x1303            0xFF
0x1304            0xFF
0x1305            0xFF
0x1306            0xFF
0x1307            0xFF
0x1308            0xFF
0x1309            0xFF
0x130A            0xFF
0x130B            0xFF
0x130C            0xFF
0x130D            0xFF
0x130E            0xFF
0x130F            0xFF
0x1310            0xFF
0x1311            0xFF
0x1312            0xFF
0x1313            0xFF
0x1314            0xFF
0x1315            0xFF
0x1316            0xFF
0x1317            0xFF
0x1318            0xFF
0x1319            0xFF
0x131A            0xFF
0x131B            0xFF
0x131C            0xFF
0x131D            0xFF
0x131E            0xFF
0x131F            0xFF
0x1320            0xFF
0x1321            0xFF
0x1322            0xFF
0x1323            0xFF
0x1324            0xFF
0x1325            0xFF
0x1326            0xFF
0x1327            0xFF
0x1328            0xFF
0x1329            0xFF
0x132A            0xFF
0x132B            0xFF
0x132C            0xFF
0x132D            0xFF
0x132E            0xFF
0x132F            0xFF
0x1330            0xFF
0x1331            0xFF
0x1332            0xFF
0x1333            0xFF
0x1334            0xFF
0x1335            0xFF
0x1336            0xFF
0x1337            0xFF
0x1338            0xFF
0x1339            0xFF
0x133A            0xFF
0x133B            0xFF
0x133C            0xFF
0x133D            0xFF
0x133E            0xFF
0x133F            0xFF
0x1340            0xFF
0x1341            0xFF
0x1342            0xFF
0x1343            0xFF
0x1344            0xFF
0x1345            0xFF
0x1346            0xFF
0x1347            0xFF
0x1348            0xFF
0x1349            0xFF
0x134A            0xFF
0x134B            0xFF
0x134C            0xFF
0x134D            0xFF
0x134E            0xFF
0x134F            0xFF
0x1350            0xFF
0x1351            0xFF
0x1352            0xFF
0x1353            0xFF
0x1354            0xFF
0x1355            0xFF
0x1356            0xFF
0x1357            0xFF
0x1358            0xFF
0x1359            0xFF
0x135A            0xFF
0x135B            0xFF
0x135C            0xFF
0x135D            0xFF
0x135E            0xFF
0x135F            0xFF
0x1360            0xFF
0x1361            0xFF
0x1362            0xFF
0x1363            0xFF
0x1364            0xFF
0x1365            0xFF
0x1366            0xFF
0x1367            0xFF
0x1368            0xFF
0x1369            0xFF
0x136A            0xFF
0x136B            0xFF
0x136C            0xFF
0x136D            0xFF
0x136E            0xFF
0x136F            0xFF
0x1370            0xFF
0x1371            0xFF
0x1372            0xFF
0x1373            0xFF
0x1374            0xFF
0x1375            0xFF
0x1376            0xFF
0x1377            0xFF
0x1378            0xFF
0x1379            0xFF
0x137A            0xFF
0x137B            0xFF
0x137C            0xFF
0x137D            0xFF
0x137E            0xFF
0x137F            0xFF
0x1380            0xFF
0x1381            0xFF
0x1382            0xFF
0x1383            0xFF
0x1384            0xFF
0x1385            0xFF
0x1386            0xFF
0x1387            0xFF
0x1388            0xFF
0x1389            0xFF
0x138A            0xFF
0x138B            0xFF
0x138C            0xFF
0x138D            0xFF
0x138E            0xFF
0x138F            0xFF
0x1390            0xFF
0x1391            0xFF
0x1392            0xFF
0x1393            0xFF
0x1394            0xFF
0x1395            0xFF
0x1396            0xFF
0x1397            0xFF
0x1398            0xFF
0x1399            0xFF
0x139A            0xFF
0x139B            0xFF
0x139C            0xFF
0x139D            0xFF
0x139E            0xFF
0x139F            0xFF
0x13A0            0xFF
0x13A1            0xFF
0x13A2            0xFF
0x13A3            0xFF
0x13A4            0xFF
0x13A5            0xFF
0x13A6            0xFF
0x13A7            0xFF
0x13A8            0xFF
0x13A9            0xFF
0x13AA            0xFF
0x13AB            0xFF
0x13AC            0xFF
0x13AD            0xFF
0x13AE            0xFF
0x13AF            0xFF
0x13B0            0xFF
0x13B1            0xFF
0x13B2            0xFF
0x13B3            0xFF
0x13B4            0xFF
0x13B5            0xFF
0x13B6            0xFF
0x13B7            0xFF
0x13B8            0xFF
0x13B9            0xFF
0x13BA            0xFF
0x13BB            0xFF
0x13BC            0xFF
0x13BD            0xFF
0x13BE            0xFF
0x13BF            0xFF
0x13C0            0xFF
0x13C1            0xFF
0x13C2            0xFF
0x13C3            0xFF
0x13C4            0xFF
0x13C5            0xFF
0x13C6            0xFF
0x13C7            0xFF
0x13C8            0xFF
0x13C9            0xFF
0x13CA            0xFF
0x13CB            0xFF
0x13CC            0xFF
0x13CD            0xFF
0x13CE            0xFF
0x13CF            0xFF
0x13D0            0xFF
0x13D1            0xFF
0x13D2            0xFF
0x13D3            0xFF
0x13D4            0xFF
0x13D5            0xFF
0x13D6            0xFF
0x13D7            0xFF
0x13D8            0xFF
0x13D9            0xFF
0x13DA            0xFF
0x13DB            0xFF
0x13DC            0xFF
0x13DD            0xFF
0x13DE            0xFF
0x13DF            0xFF
0x13E0            0xFF
0x13E1            0xFF
0x13E2            0xFF
0x13E3            0xFF
0x13E4            0xFF
0x13E5            0xFF
0x13E6            0xFF
0x13E7            0xFF
0x13E8            0xFF
0x13E9            0xFF
0x13EA            0xFF
0x13EB            0xFF
0x13EC            0xFF
0x13ED            0xFF
0x13EE            0xFF
0x13EF            0xFF
0x13F0            0xFF
0x13F1            0xFF
0x13F2            0xFF
0x13F3            0xFF
0x13F4            0xFF
0x13F5            0xFF
0x13F6            0xFF
0x13F7            0xFF
0x13F8            0xFF
0x13F9            0xFF
0x13FA            0xFF
0x13FB            0xFF
0x13FC            0xFF
0x13FD            0xFF
0x13FE            0xFF
0x13FF            0xFF
0x1400            0xFF
0x1401            0xFF
0x1402            0xFF
0x1403            0xFF
0x1404            0xFF
0x1405            0xFF
0x1406            0xFF
0x1407            0xFF
0x1408            0xFF
0x1409            0xFF
0x140A            0xFF
0x140B            0xFF
0x140C            0xFF
0x140D            0xFF
0x140E            0xFF
0x140F            0xFF
0x1410            0xFF
0x1411            0xFF
0x1412            0xFF
0x1413            0xFF
0x1414            0xFF
0x1415            0xFF
0x1416            0xFF
0x1417            0xFF
0x1418            0xFF
0x1419            0xFF
0x141A            0xFF
0x141B            0xFF
0x141C            0xFF
0x141D            0xFF
0x141E            0xFF
0x141F            0xFF
0x1420            0xFF
0x1421            0xFF
0x1422            0xFF
0x1423            0xFF
0x1424            0xFF
0x1425            0xFF
0x1426            0xFF
0x1427            0xFF
0x1428            0xFF
0x1429            0xFF
0x142A            0xFF
0x142B            0xFF
0x142C            0xFF
0x142D            0xFF
0x142E            0xFF
0x142F            0xFF
0x1430            0xFF
0x1431            0xFF
0x1432            0xFF
0x1433            0xFF
0x1434            0xFF
0x1435            0xFF
0x1436            0xFF
0x1437            0xFF
0x1438            0xFF
0x1439            0xFF
0x143A            0xFF
0x143B            0xFF
0x143C            0xFF
0x143D            0xFF
0x143E            0xFF
0x143F            0xFF
0x1440            0xFF
0x1441            0xFF
0x1442            0xFF
0x1443            0xFF
0x1444            0xFF
0x1445            0xFF
0x1446            0xFF
0x1447            0xFF
0x1448            0xFF
0x1449            0xFF
0x144A            0xFF
0x144B            0xFF
0x144C            0xFF
0x144D            0xFF
0x144E            0xFF
0x144F            0xFF
0x1450            0xFF
0x1451            0xFF
0x1452            0xFF
0x1453            0xFF
0x1454            0xFF
0x1455            0xFF
0x1456            0xFF
0x1457            0xFF
0x1458            0xFF
0x1459            0xFF
0x145A            0xFF
0x145B            0xFF
0x145C            0xFF
0x145D            0xFF
0x145E            0xFF
0x145F            0xFF
0x1460            0xFF
0x1461            0xFF
0x1462            0xFF
0x1463            0xFF
0x1464            0xFF
0x1465            0xFF
0x1466            0xFF
0x1467            0xFF
0x1468            0xFF
0x1469            0xFF
0x146A            0xFF
0x146B            0xFF
0x146C            0xFF
0x146D            0xFF
0x146E            0xFF
0x146F            0xFF
0x1470            0xFF
0x1471            0xFF
0x1472            0xFF
0x1473            0xFF
0x1474            0xFF
0x1475            0xFF
0x1476            0xFF
0x1477            0xFF
0x1478            0xFF
0x1479            0xFF
0x147A            0xFF
0x147B            0xFF
0x147C            0xFF
0x147D            0xFF
0x147E            0xFF
0x147F            0xFF
0x1480            0xFF
0x1481            0xFF
0x1482            0xFF
0x1483            0xFF
0x1484            0xFF
0x1485            0xFF
0x1486            0xFF
0x1487            0xFF
0x1488            0xFF
0x1489            0xFF
0x148A            0xFF
0x148B            0xFF
0x148C            0xFF
0x148D            0xFF
0x148E            0xFF
0x148F            0xFF
0x1490            0xFF
0x1491            0xFF
0x1492            0xFF
0x1493            0xFF
0x1494            0xFF
0x1495            0xFF
0x1496            0xFF
0x1497            0xFF
0x1498            0xFF
0x1499            0xFF
0x149A            0xFF
0x149B            0xFF
0x149C            0xFF
0x149D            0xFF
0x149E            0xFF
0x149F            0xFF
0x14A0            0xFF
0x14A1            0xFF
0x14A2            0xFF
0x14A3            0xFF
0x14A4            0xFF
0x14A5            0xFF
0x14A6            0xFF
0x14A7            0xFF
0x14A8            0xFF
0x14A9            0xFF
0x14AA            0xFF
0x14AB            0xFF
0x14AC            0xFF
0x14AD            0xFF
0x14AE            0xFF
0x14AF            0xFF
0x14B0            0xFF
0x14B1            0xFF
0x14B2            0xFF
0x14B3            0xFF
0x14B4            0xFF
0x14B5            0xFF
0x14B6            0xFF
0x14B7            0xFF
0x14B8            0xFF
0x14B9            0xFF
0x14BA            0xFF
0x14BB            0xFF
0x14BC            0xFF
0x14BD            0xFF
0x14BE            0xFF
0x14BF            0xFF
0x14C0            0xFF
0x14C1            0xFF
0x14C2            0xFF
0x14C3            0xFF
0x14C4            0xFF
0x14C5            0xFF
0x14C6            0xFF
0x14C7            0xFF
0x14C8            0xFF
0x14C9            0xFF
0x14CA            0xFF
0x14CB            0xFF
0x14CC            0xFF
0x14CD            0xFF
0x14CE            0xFF
0x14CF            0xFF
0x14D0            0xFF
0x14D1            0xFF
0x14D2            0xFF
0x14D3            0xFF
0x14D4            0xFF
0x14D5            0xFF
0x14D6            0xFF
0x14D7            0xFF
0x14D8            0xFF
0x14D9            0xFF
0x14DA            0xFF
0x14DB            0xFF
0x14DC            0xFF
0x14DD            0xFF
0x14DE            0xFF
0x14DF            0xFF
0x14E0            0xFF
0x14E1            0xFF
0x14E2            0xFF
0x14E3            0xFF
0x14E4            0xFF
0x14E5            0xFF
0x14E6            0xFF
0x14E7            0xFF
0x14E8            0xFF
0x14E9            0xFF
0x14EA            0xFF
0x14EB            0xFF
0x14EC            0xFF
0x14ED            0xFF
0x14EE            0xFF
0x14EF            0xFF
0x14F0            0xFF
0x14F1            0xFF
0x14F2            0xFF
0x14F3            0xFF
0x14F4            0xFF
0x14F5            0xFF
0x14F6            0xFF
0x14F7            0xFF
0x14F8            0xFF
0x14F9            0xFF
0x14FA            0xFF
0x14FB            0xFF
0x14FC            0xFF
0x14FD            0xFF
0x14FE            0xFF
0x14FF            0xFF
0x1500            0xFF
0x1501            0xFF
0x1502            0xFF
0x1503            0xFF
0x1504            0xFF
0x1505            0xFF
0x1506            0xFF
0x1507            0xFF
0x1508            0xFF
0x1509            0xFF
0x150A            0xFF
0x150B            0xFF
0x150C            0xFF
0x150D            0xFF
0x150E            0xFF
0x150F            0xFF
0x1510            0xFF
0x1511            0xFF
0x1512            0xFF
0x1513            0xFF
0x1514            0xFF
0x1515            0xFF
0x1516            0xFF
0x1517            0xFF
0x1518            0xFF
0x1519            0xFF
0x151A            0xFF
0x151B            0xFF
0x151C            0xFF
0x151D            0xFF
0x151E            0xFF
0x151F            0xFF
0x1520            0xFF
0x1521            0xFF
0x1522            0xFF
0x1523            0xFF
0x1524            0xFF
0x1525            0xFF
0x1526            0xFF
0x1527            0xFF
0x1528            0xFF
0x1529            0xFF
0x152A            0xFF
0x152B            0xFF
0x152C            0xFF
0x152D            0xFF
0x152E            0xFF
0x152F            0xFF
0x1530            0xFF
0x1531            0xFF
0x1532            0xFF
0x1533            0xFF
0x1534            0xFF
0x1535            0xFF
0x1536            0xFF
0x1537            0xFF
0x1538            0xFF
0x1539            0xFF
0x153A            0xFF
0x153B            0xFF
0x153C            0xFF
0x153D            0xFF
0x153E            0xFF
0x153F            0xFF
0x1540            0xFF
0x1541            0xFF
0x1542            0xFF
0x1543            0xFF
0x1544            0xFF
0x1545            0xFF
0x1546            0xFF
0x1547            0xFF
0x1548            0xFF
0x1549            0xFF
0x154A            0xFF
0x154B            0xFF
0x154C            0xFF
0x154D            0xFF
0x154E            0xFF
0x154F            0xFF
0x1550            0xFF
0x1551            0xFF
0x1552            0xFF
0x1553            0xFF
0x1554            0xFF
0x1555            0xFF
0x1556            0xFF
0x1557            0xFF
0x1558            0xFF
0x1559            0xFF
0x155A            0xFF
0x155B            0xFF
0x155C            0xFF
0x155D            0xFF
0x155E            0xFF
0x155F            0xFF
0x1560            0xFF
0x1561            0xFF
0x1562            0xFF
0x1563            0xFF
0x1564            0xFF
0x1565            0xFF
0x1566            0xFF
0x1567            0xFF
0x1568            0xFF
0x1569            0xFF
0x156A            0xFF
0x156B            0xFF
0x156C            0xFF
0x156D            0xFF
0x156E            0xFF
0x156F            0xFF
0x1570            0xFF
0x1571            0xFF
0x1572            0xFF
0x1573            0xFF
0x1574            0xFF
0x1575            0xFF
0x1576            0xFF
0x1577            0xFF
0x1578            0xFF
0x1579            0xFF
0x157A            0xFF
0x157B            0xFF
0x157C            0xFF
0x157D            0xFF
0x157E            0xFF
0x157F            0xFF
0x1580            0xFF
0x1581            0xFF
0x1582            0xFF
0x1583            0xFF
0x1584            0xFF
0x1585            0xFF
0x1586            0xFF
0x1587            0xFF
0x1588            0xFF
0x1589            0xFF
0x158A            0xFF
0x158B            0xFF
0x158C            0xFF
0x158D            0xFF
0x158E            0xFF
0x158F            0xFF
0x1590            0xFF
0x1591            0xFF
0x1592            0xFF
0x1593            0xFF
0x1594            0xFF
0x1595            0xFF
0x1596            0xFF
0x1597            0xFF
0x1598            0xFF
0x1599            0xFF
0x159A            0xFF
0x159B            0xFF
0x159C            0xFF
0x159D            0xFF
0x159E            0xFF
0x159F            0xFF
0x15A0            0xFF
0x15A1            0xFF
0x15A2            0xFF
0x15A3            0xFF
0x15A4            0xFF
0x15A5            0xFF
0x15A6            0xFF
0x15A7            0xFF
0x15A8            0xFF
0x15A9            0xFF
0x15AA            0xFF
0x15AB            0xFF
0x15AC            0xFF
0x15AD            0xFF
0x15AE            0xFF
0x15AF            0xFF
0x15B0            0xFF
0x15B1            0xFF
0x15B2            0xFF
0x15B3            0xFF
0x15B4            0xFF
0x15B5            0xFF
0x15B6            0xFF
0x15B7            0xFF
0x15B8            0xFF
0x15B9            0xFF
0x15BA            0xFF
0x15BB            0xFF
0x15BC            0xFF
0x15BD            0xFF
0x15BE            0xFF
0x15BF            0xFF
0x15C0            0xFF
0x15C1            0xFF
0x15C2            0xFF
0x15C3            0xFF
0x15C4            0xFF
0x15C5            0xFF
0x15C6            0xFF
0x15C7            0xFF
0x15C8            0xFF
0x15C9            0xFF
0x15CA            0xFF
0x15CB            0xFF
0x15CC            0xFF
0x15CD            0xFF
0x15CE            0xFF
0x15CF            0xFF
0x15D0            0xFF
0x15D1            0xFF
0x15D2            0xFF
0x15D3            0xFF
0x15D4            0xFF
0x15D5            0xFF
0x15D6            0xFF
0x15D7            0xFF
0x15D8            0xFF
0x15D9            0xFF
0x15DA            0xFF
0x15DB            0xFF
0x15DC            0xFF
0x15DD            0xFF
0x15DE            0xFF
0x15DF            0xFF
0x15E0            0xFF
0x15E1            0xFF
0x15E2            0xFF
0x15E3            0xFF
0x15E4            0xFF
0x15E5            0xFF
0x15E6            0xFF
0x15E7            0xFF
0x15E8            0xFF
0x15E9            0xFF
0x15EA            0xFF
0x15EB            0xFF
0x15EC            0xFF
0x15ED            0xFF
0x15EE            0xFF
0x15EF            0xFF
0x15F0            0xFF
0x15F1            0xFF
0x15F2            0xFF
0x15F3            0xFF
0x15F4            0xFF
0x15F5            0xFF
0x15F6            0xFF
0x15F7            0xFF
0x15F8            0xFF
0x15F9            0xFF
0x15FA            0xFF
0x15FB            0xFF
0x15FC            0xFF
0x15FD            0xFF
0x15FE            0xFF
0x15FF            0xFF
0x1600            0xFF
0x1601            0xFF
0x1602            0xFF
0x1603            0xFF
0x1604            0xFF
0x1605            0xFF
0x1606            0xFF
0x1607            0xFF
0x1608            0xFF
0x1609            0xFF
0x160A            0xFF
0x160B            0xFF
0x160C            0xFF
0x160D            0xFF
0x160E            0xFF
0x160F            0xFF
0x1610            0xFF
0x1611            0xFF
0x1612            0xFF
0x1613            0xFF
0x1614            0xFF
0x1615            0xFF
0x1616            0xFF
0x1617            0xFF
0x1618            0xFF
0x1619            0xFF
0x161A            0xFF
0x161B            0xFF
0x161C            0xFF
0x161D            0xFF
0x161E            0xFF
0x161F            0xFF
0x1620            0xFF
0x1621            0xFF
0x1622            0xFF
0x1623            0xFF
0x1624            0xFF
0x1625            0xFF
0x1626            0xFF
0x1627            0xFF
0x1628            0xFF
0x1629            0xFF
0x162A            0xFF
0x162B            0xFF
0x162C            0xFF
0x162D            0xFF
0x162E            0xFF
0x162F            0xFF
0x1630            0xFF
0x1631            0xFF
0x1632            0xFF
0x1633            0xFF
0x1634            0xFF
0x1635            0xFF
0x1636            0xFF
0x1637            0xFF
0x1638            0xFF
0x1639            0xFF
0x163A            0xFF
0x163B            0xFF
0x163C            0xFF
0x163D            0xFF
0x163E            0xFF
0x163F            0xFF
0x1640            0xFF
0x1641            0xFF
0x1642            0xFF
0x1643            0xFF
0x1644            0xFF
0x1645            0xFF
0x1646            0xFF
0x1647            0xFF
0x1648            0xFF
0x1649            0xFF
0x164A            0xFF
0x164B            0xFF
0x164C            0xFF
0x164D            0xFF
0x164E            0xFF
0x164F            0xFF
0x1650            0xFF
0x1651            0xFF
0x1652            0xFF
0x1653            0xFF
0x1654            0xFF
0x1655            0xFF
0x1656            0xFF
0x1657            0xFF
0x1658            0xFF
0x1659            0xFF
0x165A            0xFF
0x165B            0xFF
0x165C            0xFF
0x165D            0xFF
0x165E            0xFF
0x165F            0xFF
0x1660            0xFF
0x1661            0xFF
0x1662            0xFF
0x1663            0xFF
0x1664            0xFF
0x1665            0xFF
0x1666            0xFF
0x1667            0xFF
0x1668            0xFF
0x1669            0xFF
0x166A            0xFF
0x166B            0xFF
0x166C            0xFF
0x166D            0xFF
0x166E            0xFF
0x166F            0xFF
0x1670            0xFF
0x1671            0xFF
0x1672            0xFF
0x1673            0xFF
0x1674            0xFF
0x1675            0xFF
0x1676            0xFF
0x1677            0xFF
0x1678            0xFF
0x1679            0xFF
0x167A            0xFF
0x167B            0xFF
0x167C            0xFF
0x167D            0xFF
0x167E            0xFF
0x167F            0xFF
0x1680            0xFF
0x1681            0xFF
0x1682            0xFF
0x1683            0xFF
0x1684            0xFF
0x1685            0xFF
0x1686            0xFF
0x1687            0xFF
0x1688            0xFF
0x1689            0xFF
0x168A            0xFF
0x168B            0xFF
0x168C            0xFF
0x168D            0xFF
0x168E            0xFF
0x168F            0xFF
0x1690            0xFF
0x1691            0xFF
0x1692            0xFF
0x1693            0xFF
0x1694            0xFF
0x1695            0xFF
0x1696            0xFF
0x1697            0xFF
0x1698            0xFF
0x1699            0xFF
0x169A            0xFF
0x169B            0xFF
0x169C            0xFF
0x169D            0xFF
0x169E            0xFF
0x169F            0xFF
0x16A0            0xFF
0x16A1            0xFF
0x16A2            0xFF
0x16A3            0xFF
0x16A4            0xFF
0x16A5            0xFF
0x16A6            0xFF
0x16A7            0xFF
0x16A8            0xFF
0x16A9            0xFF
0x16AA            0xFF
0x16AB            0xFF
0x16AC            0xFF
0x16AD            0xFF
0x16AE            0xFF
0x16AF            0xFF
0x16B0            0xFF
0x16B1            0xFF
0x16B2            0xFF
0x16B3            0xFF
0x16B4            0xFF
0x16B5            0xFF
0x16B6            0xFF
0x16B7            0xFF
0x16B8            0xFF
0x16B9            0xFF
0x16BA            0xFF
0x16BB            0xFF
0x16BC            0xFF
0x16BD            0xFF
0x16BE            0xFF
0x16BF            0xFF
0x16C0            0xFF
0x16C1            0xFF
0x16C2            0xFF
0x16C3            0xFF
0x16C4            0xFF
0x16C5            0xFF
0x16C6            0xFF
0x16C7            0xFF
0x16C8            0xFF
0x16C9            0xFF
0x16CA            0xFF
0x16CB            0xFF
0x16CC            0xFF
0x16CD            0xFF
0x16CE            0xFF
0x16CF            0xFF
0x16D0            0xFF
0x16D1            0xFF
0x16D2            0xFF
0x16D3            0xFF
0x16D4            0xFF
0x16D5            0xFF
0x16D6            0xFF
0x16D7            0xFF
0x16D8            0xFF
0x16D9            0xFF
0x16DA            0xFF
0x16DB            0xFF
0x16DC            0xFF
0x16DD            0xFF
0x16DE            0xFF
0x16DF            0xFF
0x16E0            0xFF
0x16E1            0xFF
0x16E2            0xFF
0x16E3            0xFF
0x16E4            0xFF
0x16E5            0xFF
0x16E6            0xFF
0x16E7            0xFF
0x16E8            0xFF
0x16E9            0xFF
0x16EA            0xFF
0x16EB            0xFF
0x16EC            0xFF
0x16ED            0xFF
0x16EE            0xFF
0x16EF            0xFF
0x16F0            0xFF
0x16F1            0xFF
0x16F2            0xFF
0x16F3            0xFF
0x16F4            0xFF
0x16F5            0xFF
0x16F6            0xFF
0x16F7            0xFF
0x16F8            0xFF
0x16F9            0xFF
0x16FA            0xFF
0x16FB            0xFF
0x16FC            0xFF
0x16FD            0xFF
0x16FE            0xFF
0x16FF            0xFF
0x1700            0xFF
0x1701            0xFF
0x1702            0xFF
0x1703            0xFF
0x1704            0xFF
0x1705            0xFF
0x1706            0xFF
0x1707            0xFF
0x1708            0xFF
0x1709            0xFF
0x170A            0xFF
0x170B            0xFF
0x170C            0xFF
0x170D            0xFF
0x170E            0xFF
0x170F            0xFF
0x1710            0xFF
0x1711            0xFF
0x1712            0xFF
0x1713            0xFF
0x1714            0xFF
0x1715            0xFF
0x1716            0xFF
0x1717            0xFF
0x1718            0xFF
0x1719            0xFF
0x171A            0xFF
0x171B            0xFF
0x171C            0xFF
0x171D            0xFF
0x171E            0xFF
0x171F            0xFF
0x1720            0xFF
0x1721            0xFF
0x1722            0xFF
0x1723            0xFF
0x1724            0xFF
0x1725            0xFF
0x1726            0xFF
0x1727            0xFF
0x1728            0xFF
0x1729            0xFF
0x172A            0xFF
0x172B            0xFF
0x172C            0xFF
0x172D            0xFF
0x172E            0xFF
0x172F            0xFF
0x1730            0xFF
0x1731            0xFF
0x1732            0xFF
0x1733            0xFF
0x1734            0xFF
0x1735            0xFF
0x1736            0xFF
0x1737            0xFF
0x1738            0xFF
0x1739            0xFF
0x173A            0xFF
0x173B            0xFF
0x173C            0xFF
0x173D            0xFF
0x173E            0xFF
0x173F            0xFF
0x1740            0xFF
0x1741            0xFF
0x1742            0xFF
0x1743            0xFF
0x1744            0xFF
0x1745            0xFF
0x1746            0xFF
0x1747            0xFF
0x1748            0xFF
0x1749            0xFF
0x174A            0xFF
0x174B            0xFF
0x174C            0xFF
0x174D            0xFF
0x174E            0xFF
0x174F            0xFF
0x1750            0xFF
0x1751            0xFF
0x1752            0xFF
0x1753            0xFF
0x1754            0xFF
0x1755            0xFF
0x1756            0xFF
0x1757            0xFF
0x1758            0xFF
0x1759            0xFF
0x175A            0xFF
0x175B            0xFF
0x175C            0xFF
0x175D            0xFF
0x175E            0xFF
0x175F            0xFF
0x1760            0xFF
0x1761            0xFF
0x1762            0xFF
0x1763            0xFF
0x1764            0xFF
0x1765            0xFF
0x1766            0xFF
0x1767            0xFF
0x1768            0xFF
0x1769            0xFF
0x176A            0xFF
0x176B            0xFF
0x176C            0xFF
0x176D            0xFF
0x176E            0xFF
0x176F            0xFF
0x1770            0xFF
0x1771            0xFF
0x1772            0xFF
0x1773            0xFF
0x1774            0xFF
0x1775            0xFF
0x1776            0xFF
0x1777            0xFF
0x1778            0xFF
0x1779            0xFF
0x177A            0xFF
0x177B            0xFF
0x177C            0xFF
0x177D            0xFF
0x177E            0xFF
0x177F            0xFF
0x1780            0xFF
0x1781            0xFF
0x1782            0xFF
0x1783            0xFF
0x1784            0xFF
0x1785            0xFF
0x1786            0xFF
0x1787            0xFF
0x1788            0xFF
0x1789            0xFF
0x178A            0xFF
0x178B            0xFF
0x178C            0xFF
0x178D            0xFF
0x178E            0xFF
0x178F            0xFF
0x1790            0xFF
0x1791            0xFF
0x1792            0xFF
0x1793            0xFF
0x1794            0xFF
0x1795            0xFF
0x1796            0xFF
0x1797            0xFF
0x1798            0xFF
0x1799            0xFF
0x179A            0xFF
0x179B            0xFF
0x179C            0xFF
0x179D            0xFF
0x179E            0xFF
0x179F            0xFF
0x17A0            0xFF
0x17A1            0xFF
0x17A2            0xFF
0x17A3            0xFF
0x17A4            0xFF
0x17A5            0xFF
0x17A6            0xFF
0x17A7            0xFF
0x17A8            0xFF
0x17A9            0xFF
0x17AA            0xFF
0x17AB            0xFF
0x17AC            0xFF
0x17AD            0xFF
0x17AE            0xFF
0x17AF            0xFF
0x17B0            0xFF
0x17B1            0xFF
0x17B2            0xFF
0x17B3            0xFF
0x17B4            0xFF
0x17B5            0xFF
0x17B6            0xFF
0x17B7            0xFF
0x17B8            0xFF
0x17B9            0xFF
0x17BA            0xFF
0x17BB            0xFF
0x17BC            0xFF
0x17BD            0xFF
0x17BE            0xFF
0x17BF            0xFF
0x17C0            0xFF
0x17C1            0xFF
0x17C2            0xFF
0x17C3            0xFF
0x17C4            0xFF
0x17C5            0xFF
0x17C6            0xFF
0x17C7            0xFF
0x17C8            0xFF
0x17C9            0xFF
0x17CA            0xFF
0x17CB            0xFF
0x17CC            0xFF
0x17CD            0xFF
0x17CE            0xFF
0x17CF            0xFF
0x17D0            0xFF
0x17D1            0xFF
0x17D2            0xFF
0x17D3            0xFF
0x17D4            0xFF
0x17D5            0xFF
0x17D6            0xFF
0x17D7            0xFF
0x17D8            0xFF
0x17D9            0xFF
0x17DA            0xFF
0x17DB            0xFF
0x17DC            0xFF
0x17DD            0xFF
0x17DE            0xFF
0x17DF            0xFF
0x17E0            0xFF
0x17E1            0xFF
0x17E2            0xFF
0x17E3            0xFF
0x17E4            0xFF
0x17E5            0xFF
0x17E6            0xFF
0x17E7            0xFF
0x17E8            0xFF
0x17E9            0xFF
0x17EA            0xFF
0x17EB            0xFF
0x17EC            0xFF
0x17ED            0xFF
0x17EE            0xFF
0x17EF            0xFF
0x17F0            0xFF
0x17F1            0xFF
0x17F2            0xFF
0x17F3            0xFF
0x17F4            0xFF
0x17F5            0xFF
0x17F6            0xFF
0x17F7            0xFF
0x17F8            0xFF
0x17F9            0xFF
0x17FA            0xFF
0x17FB            0xFF
0x17FC            0xFF
0x17FD            0xFF
0x17FE            0xFF
0x17FF            0xFF
0x1800            0xFF
0x1801            0xFF
0x1802            0xFF
0x1803            0xFF
0x1804            0xFF
0x1805            0xFF
0x1806            0xFF
0x1807            0xFF
0x1808            0xFF
0x1809            0xFF
0x180A            0xFF
0x180B            0xFF
0x180C            0xFF
0x180D            0xFF
0x180E            0xFF
0x180F            0xFF
0x1810            0xFF
0x1811            0xFF
0x1812            0xFF
0x1813            0xFF
0x1814            0xFF
0x1815            0xFF
0x1816            0xFF
0x1817            0xFF
0x1818            0xFF
0x1819            0xFF
0x181A            0xFF
0x181B            0xFF
0x181C            0xFF
0x181D            0xFF
0x181E            0xFF
0x181F            0xFF
0x1820            0xFF
0x1821            0xFF
0x1822            0xFF
0x1823            0xFF
0x1824            0xFF
0x1825            0xFF
0x1826            0xFF
0x1827            0xFF
0x1828            0xFF
0x1829            0xFF
0x182A            0xFF
0x182B            0xFF
0x182C            0xFF
0x182D            0xFF
0x182E            0xFF
0x182F            0xFF
0x1830            0xFF
0x1831            0xFF
0x1832            0xFF
0x1833            0xFF
0x1834            0xFF
0x1835            0xFF
0x1836            0xFF
0x1837            0xFF
0x1838            0xFF
0x1839            0xFF
0x183A            0xFF
0x183B            0xFF
0x183C            0xFF
0x183D            0xFF
0x183E            0xFF
0x183F            0xFF
0x1840            0xFF
0x1841            0xFF
0x1842            0xFF
0x1843            0xFF
0x1844            0xFF
0x1845            0xFF
0x1846            0xFF
0x1847            0xFF
0x1848            0xFF
0x1849            0xFF
0x184A            0xFF
0x184B            0xFF
0x184C            0xFF
0x184D            0xFF
0x184E            0xFF
0x184F            0xFF
0x1850            0xFF
0x1851            0xFF
0x1852            0xFF
0x1853            0xFF
0x1854            0xFF
0x1855            0xFF
0x1856            0xFF
0x1857            0xFF
0x1858            0xFF
0x1859            0xFF
0x185A            0xFF
0x185B            0xFF
0x185C            0xFF
0x185D            0xFF
0x185E            0xFF
0x185F            0xFF
0x1860            0xFF
0x1861            0xFF
0x1862            0xFF
0x1863            0xFF
0x1864            0xFF
0x1865            0xFF
0x1866            0xFF
0x1867            0xFF
0x1868            0xFF
0x1869            0xFF
0x186A            0xFF
0x186B            0xFF
0x186C            0xFF
0x186D            0xFF
0x186E            0xFF
0x186F            0xFF
0x1870            0xFF
0x1871            0xFF
0x1872            0xFF
0x1873            0xFF
0x1874            0xFF
0x1875            0xFF
0x1876            0xFF
0x1877            0xFF
0x1878            0xFF
0x1879            0xFF
0x187A            0xFF
0x187B            0xFF
0x187C            0xFF
0x187D            0xFF
0x187E            0xFF
0x187F            0xFF
0x1880            0xFF
0x1881            0xFF
0x1882            0xFF
0x1883            0xFF
0x1884            0xFF
0x1885            0xFF
0x1886            0xFF
0x1887            0xFF
0x1888            0xFF
0x1889            0xFF
0x188A            0xFF
0x188B            0xFF
0x188C            0xFF
0x188D            0xFF
0x188E            0xFF
0x188F            0xFF
0x1890            0xFF
0x1891            0xFF
0x1892            0xFF
0x1893            0xFF
0x1894            0xFF
0x1895            0xFF
0x1896            0xFF
0x1897            0xFF
0x1898            0xFF
0x1899            0xFF
0x189A            0xFF
0x189B            0xFF
0x189C            0xFF
0x189D            0xFF
0x189E            0xFF
0x189F            0xFF
0x18A0            0xFF
0x18A1            0xFF
0x18A2            0xFF
0x18A3            0xFF
0x18A4            0xFF
0x18A5            0xFF
0x18A6            0xFF
0x18A7            0xFF
0x18A8            0xFF
0x18A9            0xFF
0x18AA            0xFF
0x18AB            0xFF
0x18AC            0xFF
0x18AD            0xFF
0x18AE            0xFF
0x18AF            0xFF
0x18B0            0xFF
0x18B1            0xFF
0x18B2            0xFF
0x18B3            0xFF
0x18B4            0xFF
0x18B5            0xFF
0x18B6            0xFF
0x18B7            0xFF
0x18B8            0xFF
0x18B9            0xFF
0x18BA            0xFF
0x18BB            0xFF
0x18BC            0xFF
0x18BD            0xFF
0x18BE            0xFF
0x18BF            0xFF
0x18C0            0xFF
0x18C1            0xFF
0x18C2            0xFF
0x18C3            0xFF
0x18C4            0xFF
0x18C5            0xFF
0x18C6            0xFF
0x18C7            0xFF
0x18C8            0xFF
0x18C9            0xFF
0x18CA            0xFF
0x18CB            0xFF
0x18CC            0xFF
0x18CD            0xFF
0x18CE            0xFF
0x18CF            0xFF
0x18D0            0xFF
0x18D1            0xFF
0x18D2            0xFF
0x18D3            0xFF
0x18D4            0xFF
0x18D5            0xFF
0x18D6            0xFF
0x18D7            0xFF
0x18D8            0xFF
0x18D9            0xFF
0x18DA            0xFF
0x18DB            0xFF
0x18DC            0xFF
0x18DD            0xFF
0x18DE            0xFF
0x18DF            0xFF
0x18E0            0xFF
0x18E1            0xFF
0x18E2            0xFF
0x18E3            0xFF
0x18E4            0xFF
0x18E5            0xFF
0x18E6            0xFF
0x18E7            0xFF
0x18E8            0xFF
0x18E9            0xFF
0x18EA            0xFF
0x18EB            0xFF
0x18EC            0xFF
0x18ED            0xFF
0x18EE            0xFF
0x18EF            0xFF
0x18F0            0xFF
0x18F1            0xFF
0x18F2            0xFF
0x18F3            0xFF
0x18F4            0xFF
0x18F5            0xFF
0x18F6            0xFF
0x18F7            0xFF
0x18F8            0xFF
0x18F9            0xFF
0x18FA            0xFF
0x18FB            0xFF
0x18FC            0xFF
0x18FD            0xFF
0x18FE            0xFF
0x18FF            0xFF
0x1900            0xFF
0x1901            0xFF
0x1902            0xFF
0x1903            0xFF
0x1904            0xFF
0x1905            0xFF
0x1906            0xFF
0x1907            0xFF
0x1908            0xFF
0x1909            0xFF
0x190A            0xFF
0x190B            0xFF
0x190C            0xFF
0x190D            0xFF
0x190E            0xFF
0x190F            0xFF
0x1910            0xFF
0x1911            0xFF
0x1912            0xFF
0x1913            0xFF
0x1914            0xFF
0x1915            0xFF
0x1916            0xFF
0x1917            0xFF
0x1918            0xFF
0x1919            0xFF
0x191A            0xFF
0x191B            0xFF
0x191C            0xFF
0x191D            0xFF
0x191E            0xFF
0x191F            0xFF
0x1920            0xFF
0x1921            0xFF
0x1922            0xFF
0x1923            0xFF
0x1924            0xFF
0x1925            0xFF
0x1926            0xFF
0x1927            0xFF
0x1928            0xFF
0x1929            0xFF
0x192A            0xFF
0x192B            0xFF
0x192C            0xFF
0x192D            0xFF
0x192E            0xFF
0x192F            0xFF
0x1930            0xFF
0x1931            0xFF
0x1932            0xFF
0x1933            0xFF
0x1934            0xFF
0x1935            0xFF
0x1936            0xFF
0x1937            0xFF
0x1938            0xFF
0x1939            0xFF
0x193A            0xFF
0x193B            0xFF
0x193C            0xFF
0x193D            0xFF
0x193E            0xFF
0x193F            0xFF
0x1940            0xFF
0x1941            0xFF
0x1942            0xFF
0x1943            0xFF
0x1944            0xFF
0x1945            0xFF
0x1946            0xFF
0x1947            0xFF
0x1948            0xFF
0x1949            0xFF
0x194A            0xFF
0x194B            0xFF
0x194C            0xFF
0x194D            0xFF
0x194E            0xFF
0x194F            0xFF
0x1950            0xFF
0x1951            0xFF
0x1952            0xFF
0x1953            0xFF
0x1954            0xFF
0x1955            0xFF
0x1956            0xFF
0x1957            0xFF
0x1958            0xFF
0x1959            0xFF
0x195A            0xFF
0x195B            0xFF
0x195C            0xFF
0x195D            0xFF
0x195E            0xFF
0x195F            0xFF
0x1960            0xFF
0x1961            0xFF
0x1962            0xFF
0x1963            0xFF
0x1964            0xFF
0x1965            0xFF
0x1966            0xFF
0x1967            0xFF
0x1968            0xFF
0x1969            0xFF
0x196A            0xFF
0x196B            0xFF
0x196C            0xFF
0x196D            0xFF
0x196E            0xFF
0x196F            0xFF
0x1970            0xFF
0x1971            0xFF
0x1972            0xFF
0x1973            0xFF
0x1974            0xFF
0x1975            0xFF
0x1976            0xFF
0x1977            0xFF
0x1978            0xFF
0x1979            0xFF
0x197A            0xFF
0x197B            0xFF
0x197C            0xFF
0x197D            0xFF
0x197E            0xFF
0x197F            0xFF
0x1980            0xFF
0x1981            0xFF
0x1982            0xFF
0x1983            0xFF
0x1984            0xFF
0x1985            0xFF
0x1986            0xFF
0x1987            0xFF
0x1988            0xFF
0x1989            0xFF
0x198A            0xFF
0x198B            0xFF
0x198C            0xFF
0x198D            0xFF
0x198E            0xFF
0x198F            0xFF
0x1990            0xFF
0x1991            0xFF
0x1992            0xFF
0x1993            0xFF
0x1994            0xFF
0x1995            0xFF
0x1996            0xFF
0x1997            0xFF
0x1998            0xFF
0x1999            0xFF
0x199A            0xFF
0x199B            0xFF
0x199C            0xFF
0x199D            0xFF
0x199E            0xFF
0x199F            0xFF
0x19A0            0xFF
0x19A1            0xFF
0x19A2            0xFF
0x19A3            0xFF
0x19A4            0xFF
0x19A5            0xFF
0x19A6            0xFF
0x19A7            0xFF
0x19A8            0xFF
0x19A9            0xFF
0x19AA            0xFF
0x19AB            0xFF
0x19AC            0xFF
0x19AD            0xFF
0x19AE            0xFF
0x19AF            0xFF
0x19B0            0xFF
0x19B1            0xFF
0x19B2            0xFF
0x19B3            0xFF
0x19B4            0xFF
0x19B5            0xFF
0x19B6            0xFF
0x19B7            0xFF
0x19B8            0xFF
0x19B9            0xFF
0x19BA            0xFF
0x19BB            0xFF
0x19BC            0xFF
0x19BD            0xFF
0x19BE            0xFF
0x19BF            0xFF
0x19C0            0xFF
0x19C1            0xFF
0x19C2            0xFF
0x19C3            0xFF
0x19C4            0xFF
0x19C5            0xFF
0x19C6            0xFF
0x19C7            0xFF
0x19C8            0xFF
0x19C9            0xFF
0x19CA            0xFF
0x19CB            0xFF
0x19CC            0xFF
0x19CD            0xFF
0x19CE            0xFF
0x19CF            0xFF
0x19D0            0xFF
0x19D1            0xFF
0x19D2            0xFF
0x19D3            0xFF
0x19D4            0xFF
0x19D5            0xFF
0x19D6            0xFF
0x19D7            0xFF
0x19D8            0xFF
0x19D9            0xFF
0x19DA            0xFF
0x19DB            0xFF
0x19DC            0xFF
0x19DD            0xFF
0x19DE            0xFF
0x19DF            0xFF
0x19E0            0xFF
0x19E1            0xFF
0x19E2            0xFF
0x19E3            0xFF
0x19E4            0xFF
0x19E5            0xFF
0x19E6            0xFF
0x19E7            0xFF
0x19E8            0xFF
0x19E9            0xFF
0x19EA            0xFF
0x19EB            0xFF
0x19EC            0xFF
0x19ED            0xFF
0x19EE            0xFF
0x19EF            0xFF
0x19F0            0xFF
0x19F1            0xFF
0x19F2            0xFF
0x19F3            0xFF
0x19F4            0xFF
0x19F5            0xFF
0x19F6            0xFF
0x19F7            0xFF
0x19F8            0xFF
0x19F9            0xFF
0x19FA            0xFF
0x19FB            0xFF
0x19FC            0xFF
0x19FD            0xFF
0x19FE            0xFF
0x19FF            0xFF
0x1A00            0x03
0x1A01            0xFF
0x1A02            0xFF
0x1A03            0xFF
0x1A04            0xFF
0x1A05            0xFF
0x1A06            0xFF
0x1A07            0xFF
0x1A08            0xFF
0x1A09            0xFF
0x1A0A            0xFF
0x1A0B            0xFF
0x1A0C            0xFF
0x1A0D            0xFF
0x1A0E            0xFF
0x1A0F            0xFF
0x1A10            0xFF
0x1A11            0xFF
0x1A12            0xFF
0x1A13            0xFF
0x1A14            0xFF
0x1A15            0xFF
0x1A16            0xFF
0x1A17            0xFF
0x1A18            0xFF
0x1A19            0xFF
0x1A1A            0xFF
0x1A1B            0xFF
0x1A1C            0xFF
0x1A1D            0xFF
0x1A1E            0xFF
0x1A1F            0xFF
0x1A20            0xFF
0x1A21            0xFF
0x1A22            0xFF
0x1A23            0xFF
0x1A24            0xFF
0x1A25            0xFF
0x1A26            0xFF
0x1A27            0xFF
0x1A28            0xFF
0x1A29            0xFF
0x1A2A            0xFF
0x1A2B            0xFF
0x1A2C            0xFF
0x1A2D            0xFF
0x1A2E            0xFF
0x1A2F            0xFF
0x1A30            0xFF
0x1A31            0xFF
0x1A32            0xFF
0x1A33            0xFF
0x1A34            0xFF
0x1A35            0xFF
0x1A36            0xFF
0x1A37            0xFF
0x1A38            0xFF
0x1A39            0xFF
0x1A3A            0xFF
0x1A3B            0xFF
0x1A3C            0xFF
0x1A3D            0xFF
0x1A3E            0xFF
0x1A3F            0xFF
0x1A40            0xFF
0x1A41            0xFF
0x1A42            0xFF
0x1A43            0xFF
0x1A44            0xFF
0x1A45            0xFF
0x1A46            0xFF
0x1A47            0xFF
0x1A48            0xFF
0x1A49            0xFF
0x1A4A            0xFF
0x1A4B            0xFF
0x1A4C            0xFF
0x1A4D            0xFF
0x1A4E            0xFF
0x1A4F            0xFF
0x1A50            0xFF
0x1A51            0xFF
0x1A52            0xFF
0x1A53            0xFF
0x1A54            0xFF
0x1A55            0xFF
0x1A56            0xFF
0x1A57            0xFF
0x1A58            0xFF
0x1A59            0xFF
0x1A5A            0xFF
0x1A5B            0xFF
0x1A5C            0xFF
0x1A5D            0xFF
0x1A5E            0xFF
0x1A5F            0xFF
0x1A60            0xFF
0x1A61            0xFF
0x1A62            0xFF
0x1A63            0xFF
0x1A64            0xFF
0x1A65            0xFF
0x1A66            0xFF
0x1A67            0xFF
0x1A68            0xFF
0x1A69            0xFF
0x1A6A            0xFF
0x1A6B            0xFF
0x1A6C            0xFF
0x1A6D            0xFF
0x1A6E            0xFF
0x1A6F            0xFF
0x1A70            0xFF
0x1A71            0xFF
0x1A72            0xFF
0x1A73            0xFF
0x1A74            0xFF
0x1A75            0xFF
0x1A76            0xFF
0x1A77            0xFF
0x1A78            0xFF
0x1A79            0xFF
0x1A7A            0xFF
0x1A7B            0xFF
0x1A7C            0xFF
0x1A7D            0xFF
0x1A7E            0xFF
0x1A7F            0xFF
0x1A80            0xFF
0x1A81            0xFF
0x1A82            0xFF
0x1A83            0xFF
0x1A84            0xFF
0x1A85            0xFF
0x1A86            0xFF
0x1A87            0xFF
0x1A88            0xFF
0x1A89            0xFF
0x1A8A            0xFF
0x1A8B            0xFF
0x1A8C            0xFF
0x1A8D            0xFF
0x1A8E            0xFF
0x1A8F            0xFF
0x1A90            0xFF
0x1A91            0xFF
0x1A92            0xFF
0x1A93            0xFF
0x1A94            0xFF
0x1A95            0xFF
0x1A96            0xFF
0x1A97            0xFF
0x1A98            0xFF
0x1A99            0xFF
0x1A9A            0xFF
0x1A9B            0xFF
0x1A9C            0xFF
0x1A9D            0xFF
0x1A9E            0xFF
0x1A9F            0xFF
0x1AA0            0xFF
0x1AA1            0xFF
0x1AA2            0xFF
0x1AA3            0xFF
0x1AA4            0xFF
0x1AA5            0xFF
0x1AA6            0xFF
0x1AA7            0xFF
0x1AA8            0xFF
0x1AA9            0xFF
0x1AAA            0xFF
0x1AAB            0xFF
0x1AAC            0xFF
0x1AAD            0xFF
0x1AAE            0xFF
0x1AAF            0xFF
0x1AB0            0xFF
0x1AB1            0xFF
0x1AB2            0xFF
0x1AB3            0xFF
0x1AB4            0xFF
0x1AB5            0xFF
0x1AB6            0xFF
0x1AB7            0xFF
0x1AB8            0xFF
0x1AB9            0xFF
0x1ABA            0xFF
0x1ABB            0xFF
0x1ABC            0xFF
0x1ABD            0xFF
0x1ABE            0xFF
0x1ABF            0xFF
0x1AC0            0xFF
0x1AC1            0xFF
0x1AC2            0xFF
0x1AC3            0xFF
0x1AC4            0xFF
0x1AC5            0xFF
0x1AC6            0xFF
0x1AC7            0xFF
0x1AC8            0xFF
0x1AC9            0xFF
0x1ACA            0xFF
0x1ACB            0xFF
0x1ACC            0xFF
0x1ACD            0xFF
0x1ACE            0xFF
0x1ACF            0xFF
0x1AD0            0xFF
0x1AD1            0xFF
0x1AD2            0xFF
0x1AD3            0xFF
0x1AD4            0xFF
0x1AD5            0xFF
0x1AD6            0xFF
0x1AD7            0xFF
0x1AD8            0xFF
0x1AD9            0xFF
0x1ADA            0xFF
0x1ADB            0xFF
0x1ADC            0xFF
0x1ADD            0xFF
0x1ADE            0xFF
0x1ADF            0xFF
0x1AE0            0xFF
0x1AE1            0xFF
0x1AE2            0xFF
0x1AE3            0xFF
0x1AE4            0xFF
0x1AE5            0xFF
0x1AE6            0xFF
0x1AE7            0xFF
0x1AE8            0xFF
0x1AE9            0xFF
0x1AEA            0xFF
0x1AEB            0xFF
0x1AEC            0xFF
0x1AED            0xFF
0x1AEE            0xFF
0x1AEF            0xFF
0x1AF0            0xFF
0x1AF1            0xFF
0x1AF2            0xFF
0x1AF3            0xFF
0x1AF4            0xFF
0x1AF5            0xFF
0x1AF6            0xFF
0x1AF7            0xFF
0x1AF8            0xFF
0x1AF9            0xFF
0x1AFA            0xFF
0x1AFB            0xFF
0x1AFC            0xFF
0x1AFD            0xFF
0x1AFE            0xFF
0x1AFF            0xFF
0x1B00            0xFF
0x1B01            0xFF
0x1B02            0xFF
0x1B03            0xFF
0x1B04            0xFF
0x1B05            0xFF
0x1B06            0xFF
0x1B07            0xFF
0x1B08            0xFF
0x1B09            0xFF
0x1B0A            0xFF
0x1B0B            0xFF
0x1B0C            0xFF
0x1B0D            0xFF
0x1B0E            0xFF
0x1B0F            0xFF
0x1B10            0xFF
0x1B11            0xFF
0x1B12            0xFF
0x1B13            0xFF
0x1B14            0xFF
0x1B15            0xFF
0x1B16            0xFF
0x1B17            0xFF
0x1B18            0xFF
0x1B19            0xFF
0x1B1A            0xFF
0x1B1B            0xFF
0x1B1C            0xFF
0x1B1D            0xFF
0x1B1E            0xFF
0x1B1F            0xFF
0x1B20            0xFF
0x1B21            0xFF
0x1B22            0xFF
0x1B23            0xFF
0x1B24            0xFF
0x1B25            0xFF
0x1B26            0xFF
0x1B27            0xFF
0x1B28            0xFF
0x1B29            0xFF
0x1B2A            0xFF
0x1B2B            0xFF
0x1B2C            0xFF
0x1B2D            0xFF
0x1B2E            0xFF
0x1B2F            0xFF
0x1B30            0xFF
0x1B31            0xFF
0x1B32            0xFF
0x1B33            0xFF
0x1B34            0xFF
0x1B35            0xFF
0x1B36            0xFF
0x1B37            0xFF
0x1B38            0xFF
0x1B39            0xFF
0x1B3A            0xFF
0x1B3B            0xFF
0x1B3C            0xFF
0x1B3D            0xFF
0x1B3E            0xFF
0x1B3F            0xFF
0x1B40            0xFF
0x1B41            0xFF
0x1B42            0xFF
0x1B43            0xFF
0x1B44            0xFF
0x1B45            0xFF
0x1B46            0xFF
0x1B47            0xFF
0x1B48            0xFF
0x1B49            0xFF
0x1B4A            0xFF
0x1B4B            0xFF
0x1B4C            0xFF
0x1B4D            0xFF
0x1B4E            0xFF
0x1B4F            0xFF
0x1B50            0xFF
0x1B51            0xFF
0x1B52            0xFF
0x1B53            0xFF
0x1B54            0xFF
0x1B55            0xFF
0x1B56            0xFF
0x1B57            0xFF
0x1B58            0xFF
0x1B59            0xFF
0x1B5A            0xFF
0x1B5B            0xFF
0x1B5C            0xFF
0x1B5D            0xFF
0x1B5E            0xFF
0x1B5F            0xFF
0x1B60            0xFF
0x1B61            0xFF
0x1B62            0xFF
0x1B63            0xFF
0x1B64            0xFF
0x1B65            0xFF
0x1B66            0xFF
0x1B67            0xFF
0x1B68            0xFF
0x1B69            0xFF
0x1B6A            0xFF
0x1B6B            0xFF
0x1B6C            0xFF
0x1B6D            0xFF
0x1B6E            0xFF
0x1B6F            0xFF
0x1B70            0xFF
0x1B71            0xFF
0x1B72            0xFF
0x1B73            0xFF
0x1B74            0xFF
0x1B75            0xFF
0x1B76            0xFF
0x1B77            0xFF
0x1B78            0xFF
0x1B79            0xFF
0x1B7A            0xFF
0x1B7B            0xFF
0x1B7C            0xFF
0x1B7D            0xFF
0x1B7E            0xFF
0x1B7F            0xFF
0x1B80            0xFF
0x1B81            0xFF
0x1B82            0xFF
0x1B83            0xFF
0x1B84            0xFF
0x1B85            0xFF
0x1B86            0xFF
0x1B87            0xFF
0x1B88            0xFF
0x1B89            0xFF
0x1B8A            0xFF
0x1B8B            0xFF
0x1B8C            0xFF
0x1B8D            0xFF
0x1B8E            0xFF
0x1B8F            0xFF
0x1B90            0xFF
0x1B91            0xFF
0x1B92            0xFF
0x1B93            0xFF
0x1B94            0xFF
0x1B95            0xFF
0x1B96            0xFF
0x1B97            0xFF
0x1B98            0xFF
0x1B99            0xFF
0x1B9A            0xFF
0x1B9B            0xFF
0x1B9C            0xFF
0x1B9D            0xFF
0x1B9E            0xFF
0x1B9F            0xFF
0x1BA0            0xFF
0x1BA1            0xFF
0x1BA2            0xFF
0x1BA3            0xFF
0x1BA4            0xFF
0x1BA5            0xFF
0x1BA6            0xFF
0x1BA7            0xFF
0x1BA8            0xFF
0x1BA9            0xFF
0x1BAA            0xFF
0x1BAB            0xFF
0x1BAC            0xFF
0x1BAD            0xFF
0x1BAE            0xFF
0x1BAF            0xFF
0x1BB0            0xFF
0x1BB1            0xFF
0x1BB2            0xFF
0x1BB3            0xFF
0x1BB4            0xFF
0x1BB5            0xFF
0x1BB6            0xFF
0x1BB7            0xFF
0x1BB8            0xFF
0x1BB9            0xFF
0x1BBA            0xFF
0x1BBB            0xFF
0x1BBC            0xFF
0x1BBD            0xFF
0x1BBE            0xFF
0x1BBF            0xFF
0x1BC0            0xFF
0x1BC1            0xFF
0x1BC2            0xFF
0x1BC3            0xFF
0x1BC4            0xFF
0x1BC5            0xFF
0x1BC6            0xFF
0x1BC7            0xFF
0x1BC8            0xFF
0x1BC9            0xFF
0x1BCA            0xFF
0x1BCB            0xFF
0x1BCC            0xFF
0x1BCD            0xFF
0x1BCE            0xFF
0x1BCF            0xFF
0x1BD0            0xFF
0x1BD1            0xFF
0x1BD2            0xFF
0x1BD3            0xFF
0x1BD4            0xFF
0x1BD5            0xFF
0x1BD6            0xFF
0x1BD7            0xFF
0x1BD8            0xFF
0x1BD9            0xFF
0x1BDA            0xFF
0x1BDB            0xFF
0x1BDC            0xFF
0x1BDD            0xFF
0x1BDE            0xFF
0x1BDF            0xFF
0x1BE0            0xFF
0x1BE1            0xFF
0x1BE2            0xFF
0x1BE3            0xFF
0x1BE4            0xFF
0x1BE5            0xFF
0x1BE6            0xFF
0x1BE7            0xFF
0x1BE8            0xFF
0x1BE9            0xFF
0x1BEA            0xFF
0x1BEB            0xFF
0x1BEC            0xFF
0x1BED            0xFF
0x1BEE            0xFF
0x1BEF            0xFF
0x1BF0            0xFF
0x1BF1            0xFF
0x1BF2            0xFF
0x1BF3            0xFF
0x1BF4            0xFF
0x1BF5            0xFF
0x1BF6            0xFF
0x1BF7            0xFF
0x1BF8            0xFF
0x1BF9            0xFF
0x1BFA            0xFF
0x1BFB            0xFF
0x1BFC            0xFF
0x1BFD            0xFF
0x1BFE            0x92
0x1BFF            0x18
0x1C00            0xFF
0x1C01            0xFF
0x1C02            0xFF
0x1C03            0xFF
0x1C04            0xFF
0x1C05            0xFF
0x1C06            0xFF
0x1C07            0xFF
0x1C08            0xFF
0x1C09            0xFF
0x1C0A            0xFF
0x1C0B            0xFF
0x1C0C            0xFF
0x1C0D            0xFF
0x1C0E            0xFF
0x1C0F            0xFF
0x1C10            0xFF
0x1C11            0xFF
0x1C12            0xFF
0x1C13            0xFF
0x1C14            0xFF
0x1C15            0xFF
0x1C16            0xFF
0x1C17            0xFF
0x1C18            0xFF
0x1C19            0xFF
0x1C1A            0xFF
0x1C1B            0xFF
0x1C1C            0xFF
0x1C1D            0xFF
0x1C1E            0xFF
0x1C1F            0xFF
0x1C20            0xFF
0x1C21            0xFF
0x1C22            0xFF
0x1C23            0xFF
0x1C24            0xFF
0x1C25            0xFF
0x1C26            0xFF
0x1C27            0xFF
0x1C28            0xFF
0x1C29            0xFF
0x1C2A            0xFF
0x1C2B            0xFF
0x1C2C            0xFF
0x1C2D            0xFF
0x1C2E            0xFF
0x1C2F            0xFF
0x1C30            0xFF
0x1C31            0xFF
0x1C32            0xFF
0x1C33            0xFF
0x1C34            0xFF
0x1C35            0xFF
0x1C36            0xFF
0x1C37            0xFF
0x1C38            0xFF
0x1C39            0xFF
0x1C3A            0xFF
0x1C3B            0xFF
0x1C3C            0xFF
0x1C3D            0xFF
0x1C3E            0xFF
0x1C3F            0xFF
0x1C40            0xFF
0x1C41            0xFF
0x1C42            0xFF
0x1C43            0xFF
0x1C44            0xFF
0x1C45            0xFF
0x1C46            0xFF
0x1C47            0xFF
0x1C48            0xFF
0x1C49            0xFF
0x1C4A            0xFF
0x1C4B            0xFF
0x1C4C            0xFF
0x1C4D            0xFF
0x1C4E            0xFF
0x1C4F            0xFF
0x1C50            0xFF
0x1C51            0xFF
0x1C52            0xFF
0x1C53            0xFF
0x1C54            0xFF
0x1C55            0xFF
0x1C56            0xFF
0x1C57            0xFF
0x1C58            0xFF
0x1C59            0xFF
0x1C5A            0xFF
0x1C5B            0xFF
0x1C5C            0xFF
0x1C5D            0xFF
0x1C5E            0xFF
0x1C5F            0xFF
0x1C60            0xFF
0x1C61            0xFF
0x1C62            0xFF
0x1C63            0xFF
0x1C64            0xFF
0x1C65            0xFF
0x1C66            0xFF
0x1C67            0xFF
0x1C68            0xFF
0x1C69            0xFF
0x1C6A            0xFF
0x1C6B            0xFF
0x1C6C            0xFF
0x1C6D            0xFF
0x1C6E            0xFF
0x1C6F            0xFF
0x1C70            0xFF
0x1C71            0xFF
0x1C72            0xFF
0x1C73            0xFF
0x1C74            0xFF
0x1C75            0xFF
0x1C76            0xFF
0x1C77            0xFF
0x1C78            0xFF
0x1C79            0xFF
0x1C7A            0xFF
0x1C7B            0xFF
0x1C7C            0xFF
0x1C7D            0xFF
0x1C7E            0xFF
0x1C7F            0xFF
0x1C80            0xFF
0x1C81            0xFF
0x1C82            0xFF
0x1C83            0xFF
0x1C84            0xFF
0x1C85            0xFF
0x1C86            0xFF
0x1C87            0xFF
0x1C88            0xFF
0x1C89            0xFF
0x1C8A            0xFF
0x1C8B            0xFF
0x1C8C            0xFF
0x1C8D            0xFF
0x1C8E            0xFF
0x1C8F            0xFF
0x1C90            0xFF
0x1C91            0xFF
0x1C92            0xFF
0x1C93            0xFF
0x1C94            0xFF
0x1C95            0xFF
0x1C96            0xFF
0x1C97            0xFF
0x1C98            0xFF
0x1C99            0xFF
0x1C9A            0xFF
0x1C9B            0xFF
0x1C9C            0xFF
0x1C9D            0xFF
0x1C9E            0xFF
0x1C9F            0xFF
0x1CA0            0xFF
0x1CA1            0xFF
0x1CA2            0xFF
0x1CA3            0xFF
0x1CA4            0xFF
0x1CA5            0xFF
0x1CA6            0xFF
0x1CA7            0xFF
0x1CA8            0xFF
0x1CA9            0xFF
0x1CAA            0xFF
0x1CAB            0xFF
0x1CAC            0xFF
0x1CAD            0xFF
0x1CAE            0xFF
0x1CAF            0xFF
0x1CB0            0xFF
0x1CB1            0xFF
0x1CB2            0xFF
0x1CB3            0xFF
0x1CB4            0xFF
0x1CB5            0xFF
0x1CB6            0xFF
0x1CB7            0xFF
0x1CB8            0xFF
0x1CB9            0xFF
0x1CBA            0xFF
0x1CBB            0xFF
0x1CBC            0xFF
0x1CBD            0xFF
0x1CBE            0xFF
0x1CBF            0xFF
0x1CC0            0xFF
0x1CC1            0xFF
0x1CC2            0xFF
0x1CC3            0xFF
0x1CC4            0xFF
0x1CC5            0xFF
0x1CC6            0xFF
0x1CC7            0xFF
0x1CC8            0xFF
0x1CC9            0xFF
0x1CCA            0xFF
0x1CCB            0xFF
0x1CCC            0xFF
0x1CCD            0xFF
0x1CCE            0xFF
0x1CCF            0xFF
0x1CD0            0xFF
0x1CD1            0xFF
0x1CD2            0xFF
0x1CD3            0xFF
0x1CD4            0xFF
0x1CD5            0xFF
0x1CD6            0xFF
0x1CD7            0xFF
0x1CD8            0xFF
0x1CD9            0xFF
0x1CDA            0xFF
0x1CDB            0xFF
0x1CDC            0xFF
0x1CDD            0xFF
0x1CDE            0xFF
0x1CDF            0xFF
0x1CE0            0xFF
0x1CE1            0xFF
0x1CE2            0xFF
0x1CE3            0xFF
0x1CE4            0xFF
0x1CE5            0xFF
0x1CE6            0xFF
0x1CE7            0xFF
0x1CE8            0xFF
0x1CE9            0xFF
0x1CEA            0xFF
0x1CEB            0xFF
0x1CEC            0xFF
0x1CED            0xFF
0x1CEE            0xFF
0x1CEF            0xFF
0x1CF0            0xFF
0x1CF1            0xFF
0x1CF2            0xFF
0x1CF3            0xFF
0x1CF4            0xFF
0x1CF5            0xFF
0x1CF6            0xFF
0x1CF7            0xFF
0x1CF8            0xFF
0x1CF9            0xFF
0x1CFA            0xFF
0x1CFB            0xFF
0x1CFC            0xFF
0x1CFD            0xFF
0x1CFE            0xFF
0x1CFF            0xFF
0x1D00            0x32 (2)
0x1D01            0x00
0x1D02            0x31 (1)
0x1D03            0x30 (0)
0x1D04            0x32 (2)
0x1D05            0x31 (1)
0x1D06            0x37 (7)
0x1D07            0x34 (4)
0x1D08            0x39 (9)
0x1D09            0x2D (-)
0x1D0A            0x30 (0)
0x1D0B            0x30 (0)
0x1D0C            0x2D (-)
0x1D0D            0x42 (B)
0x1D0E            0x00
0x1D0F            0x00
0x1D10            0x00
0x1D11            0x00
0x1D12            0x00
0x1D13            0x00
0x1D14            0x00
0x1D15            0x00
0x1D16            0x30 (0)
0x1D17            0x33 (3)
0x1D18            0x31 (1)
0x1D19            0x34 (4)
0x1D1A            0x43 (C)
0x1D1B            0x31 (1)
0x1D1C            0x30 (0)
0x1D1D            0x30 (0)
0x1D1E            0x30 (0)
0x1D1F            0x30 (0)
0x1D20            0x38 (8)
0x1D21            0x30 (0)
0x1D22            0x38 (8)
0x1D23            0x00
0x1D24            0x31 (1)
0x1D25            0x30 (0)
0x1D26            0x30 (0)
0x1D27            0x39 (9)
0x1D28            0x33 (3)
0x1D29            0x31 (1)
0x1D2A            0x32 (2)
0x1D2B            0x2D (-)
0x1D2C            0x30 (0)
0x1D2D            0x30 (0)
0x1D2E            0x2D (-)
0x1D2F            0x45 (E)
0x1D30            0x00
0x1D31            0x00
0x1D32            0x00
0x1D33            0x00
0x1D34            0x00
0x1D35            0x00
0x1D36            0x00
0x1D37            0x00
0x1D38            0x54 (T)
0x1D39            0x31 (1)
0x1D3A            0x34 (4)
0x1D3B            0x43 (C)
0x1D3C            0x30 (0)
0x1D3D            0x36 (6)
0x1D3E            0x31 (1)
0x1D3F            0x38 (8)
0x1D40            0x33 (3)
0x1D41            0x39 (9)
0x1D42            0x33 (3)
0x1D43            0x00
0x1D44            0x00
0x1D45            0x00
0x1D46            0x90
0x1D47            0xB5
0x1D48            0xCD
0x1D49            0x84
0x1D4A            0xE8
0x1D4B            0xFF
0x1D4C            0xFF
0x1D4D            0xFF
0x1D4E            0xFF
0x1D4F            0xFF
0x1D50            0xFF
0x1D51            0xFF
0x1D52            0xFF
0x1D53            0xFF
0x1D54            0xFF
0x1D55            0xFF
0x1D56            0xFF
0x1D57            0xFF
0x1D58            0xFF
0x1D59            0xFF
0x1D5A            0xFF
0x1D5B            0xFF
0x1D5C            0xFF
0x1D5D            0xFF
0x1D5E            0xFF
0x1D5F            0xFF
0x1D60            0xFF
0x1D61            0xFF
0x1D62            0xFF
0x1D63            0xFF
0x1D64            0xFF
0x1D65            0xFF
0x1D66            0xFF
0x1D67            0xFF
0x1D68            0xFF
0x1D69            0xFF
0x1D6A            0xFF
0x1D6B            0xFF
0x1D6C            0xFF
0x1D6D            0xFF
0x1D6E            0xFF
0x1D6F            0xFF
0x1D70            0xFF
0x1D71            0xFF
0x1D72            0xFF
0x1D73            0xFF
0x1D74            0xFF
0x1D75            0xFF
0x1D76            0xFF
0x1D77            0xFF
0x1D78            0xFF
0x1D79            0xFF
0x1D7A            0xFF
0x1D7B            0xFF
0x1D7C            0xFF
0x1D7D            0xFF
0x1D7E            0xFF
0x1D7F            0xFF
0x1D80            0xFF
0x1D81            0xFF
0x1D82            0xFF
0x1D83            0xFF
0x1D84            0xFF
0x1D85            0xFF
0x1D86            0xFF
0x1D87            0xFF
0x1D88            0xFF
0x1D89            0xFF
0x1D8A            0xFF
0x1D8B            0xFF
0x1D8C            0xFF
0x1D8D            0xFF
0x1D8E            0xFF
0x1D8F            0xFF
0x1D90            0xFF
0x1D91            0xFF
0x1D92            0xFF
0x1D93            0xFF
0x1D94            0xFF
0x1D95            0xFF
0x1D96            0xFF
0x1D97            0xFF
0x1D98            0xFF
0x1D99            0xFF
0x1D9A            0xFF
0x1D9B            0xFF
0x1D9C            0xFF
0x1D9D            0xFF
0x1D9E            0xFF
0x1D9F            0xFF
0x1DA0            0xFF
0x1DA1            0xFF
0x1DA2            0xFF
0x1DA3            0xFF
0x1DA4            0xFF
0x1DA5            0xFF
0x1DA6            0xFF
0x1DA7            0xFF
0x1DA8            0xFF
0x1DA9            0xFF
0x1DAA            0xFF
0x1DAB            0xFF
0x1DAC            0xFF
0x1DAD            0xFF
0x1DAE            0xFF
0x1DAF            0xFF
0x1DB0            0xFF
0x1DB1            0xFF
0x1DB2            0xFF
0x1DB3            0xFF
0x1DB4            0xFF
0x1DB5            0xFF
0x1DB6            0xFF
0x1DB7            0xFF
0x1DB8            0xFF
0x1DB9            0xFF
0x1DBA            0xFF
0x1DBB            0xFF
0x1DBC            0xFF
0x1DBD            0xFF
0x1DBE            0xFF
0x1DBF            0xFF
0x1DC0            0xFF
0x1DC1            0xFF
0x1DC2            0xFF
0x1DC3            0xFF
0x1DC4            0xFF
0x1DC5            0xFF
0x1DC6            0xFF
0x1DC7            0xFF
0x1DC8            0xFF
0x1DC9            0xFF
0x1DCA            0xFF
0x1DCB            0xFF
0x1DCC            0xFF
0x1DCD            0xFF
0x1DCE            0xFF
0x1DCF            0xFF
0x1DD0            0xFF
0x1DD1            0xFF
0x1DD2            0xFF
0x1DD3            0xFF
0x1DD4            0xFF
0x1DD5            0xFF
0x1DD6            0xFF
0x1DD7            0xFF
0x1DD8            0xFF
0x1DD9            0xFF
0x1DDA            0xFF
0x1DDB            0xFF
0x1DDC            0xFF
0x1DDD            0xFF
0x1DDE            0xFF
0x1DDF            0xFF
0x1DE0            0xFF
0x1DE1            0xFF
0x1DE2            0xFF
0x1DE3            0xFF
0x1DE4            0xFF
0x1DE5            0xFF
0x1DE6            0xFF
0x1DE7            0xFF
0x1DE8            0xFF
0x1DE9            0xFF
0x1DEA            0xFF
0x1DEB            0xFF
0x1DEC            0xFF
0x1DED            0xFF
0x1DEE            0xFF
0x1DEF            0xFF
0x1DF0            0xFF
0x1DF1            0xFF
0x1DF2            0xFF
0x1DF3            0xFF
0x1DF4            0xFF
0x1DF5            0xFF
0x1DF6            0xFF
0x1DF7            0xFF
0x1DF8            0xFF
0x1DF9            0xFF
0x1DFA            0xFF
0x1DFB            0xFF
0x1DFC            0xFF
0x1DFD            0xFF
0x1DFE            0xFF
0x1DFF            0xFF
0x1E00            0x00
0x1E01            0x00
0x1E02            0x00
0x1E03            0x00
0x1E04            0x00
0x1E05            0x00
0x1E06            0x00
0x1E07            0x00
0x1E08            0x00
0x1E09            0x00
0x1E0A            0x00
0x1E0B            0x00
0x1E0C            0x00
0x1E0D            0x00
0x1E0E            0x00
0x1E0F            0x00
0x1E10            0x00
0x1E11            0x00
0x1E12            0x00
0x1E13            0x00
0x1E14            0x00
0x1E15            0x00
0x1E16            0x00
0x1E17            0x00
0x1E18            0x00
0x1E19            0x00
0x1E1A            0x00
0x1E1B            0x00
0x1E1C            0x00
0x1E1D            0x00
0x1E1E            0x00
0x1E1F            0x00
0x1E20            0x00
0x1E21            0x00
0x1E22            0x00
0x1E23            0x00
0x1E24            0x00
0x1E25            0x00
0x1E26            0x00
0x1E27            0x00
0x1E28            0x00
0x1E29            0x00
0x1E2A            0x00
0x1E2B            0x00
0x1E2C            0x00
0x1E2D            0x00
0x1E2E            0x00
0x1E2F            0x00
0x1E30            0x00
0x1E31            0x00
0x1E32            0x00
0x1E33            0x00
0x1E34            0x00
0x1E35            0x00
0x1E36            0x00
0x1E37            0x00
0x1E38            0x00
0x1E39            0x00
0x1E3A            0x00
0x1E3B            0x00
0x1E3C            0x00
0x1E3D            0x00
0x1E3E            0x00
0x1E3F            0x00
0x1E40            0x00
0x1E41            0x00
0x1E42            0x00
0x1E43            0x00
0x1E44            0x00
0x1E45            0x00
0x1E46            0x00
0x1E47            0x00
0x1E48            0x00
0x1E49            0x00
0x1E4A            0x00
0x1E4B            0x00
0x1E4C            0x00
0x1E4D            0x00
0x1E4E            0x00
0x1E4F            0x00
0x1E50            0x00
0x1E51            0x00
0x1E52            0x00
0x1E53            0x00
0x1E54            0x00
0x1E55            0x00
0x1E56            0x00
0x1E57            0x00
0x1E58            0x00
0x1E59            0x00
0x1E5A            0x00
0x1E5B            0x00
0x1E5C            0x00
0x1E5D            0x00
0x1E5E            0x00
0x1E5F            0x00
0x1E60            0x00
0x1E61            0x00
0x1E62            0x00
0x1E63            0x00
0x1E64            0x00
0x1E65            0x00
0x1E66            0x00
0x1E67            0x00
0x1E68            0x00
0x1E69            0x00
0x1E6A            0x00
0x1E6B            0x00
0x1E6C            0x00
0x1E6D            0x00
0x1E6E            0x00
0x1E6F            0x00
0x1E70            0x00
0x1E71            0x00
0x1E72            0x00
0x1E73            0x00
0x1E74            0x00
0x1E75            0x00
0x1E76            0x00
0x1E77            0x00
0x1E78            0x00
0x1E79            0x00
0x1E7A            0x00
0x1E7B            0x00
0x1E7C            0x00
0x1E7D            0x00
0x1E7E            0x00
0x1E7F            0x00
0x1E80            0x00
0x1E81            0x00
0x1E82            0x00
0x1E83            0x00
0x1E84            0x00
0x1E85            0x00
0x1E86            0x00
0x1E87            0x00
0x1E88            0x00
0x1E89            0x00
0x1E8A            0x00
0x1E8B            0x00
0x1E8C            0x00
0x1E8D            0x00
0x1E8E            0x00
0x1E8F            0x00
0x1E90            0x00
0x1E91            0x00
0x1E92            0x00
0x1E93            0x00
0x1E94            0x00
0x1E95            0x00
0x1E96            0x00
0x1E97            0x00
0x1E98            0x00
0x1E99            0x00
0x1E9A            0x00
0x1E9B            0x00
0x1E9C            0x00
0x1E9D            0x00
0x1E9E            0x00
0x1E9F            0x00
0x1EA0            0x00
0x1EA1            0x00
0x1EA2            0x00
0x1EA3            0x00
0x1EA4            0x00
0x1EA5            0x00
0x1EA6            0x00
0x1EA7            0x00
0x1EA8            0x00
0x1EA9            0x00
0x1EAA            0x00
0x1EAB            0x00
0x1EAC            0x00
0x1EAD            0x00
0x1EAE            0x00
0x1EAF            0x00
0x1EB0            0x00
0x1EB1            0x00
0x1EB2            0x00
0x1EB3            0x00
0x1EB4            0x00
0x1EB5            0x00
0x1EB6            0x00
0x1EB7            0x00
0x1EB8            0x00
0x1EB9            0x00
0x1EBA            0x00
0x1EBB            0x00
0x1EBC            0x00
0x1EBD            0x00
0x1EBE            0x00
0x1EBF            0x00
0x1EC0            0x00
0x1EC1            0x00
0x1EC2            0x00
0x1EC3            0x00
0x1EC4            0x00
0x1EC5            0x00
0x1EC6            0x00
0x1EC7            0x00
0x1EC8            0x00
0x1EC9            0x00
0x1ECA            0x00
0x1ECB            0x00
0x1ECC            0x00
0x1ECD            0x00
0x1ECE            0x00
0x1ECF            0x00
0x1ED0            0x00
0x1ED1            0x00
0x1ED2            0x00
0x1ED3            0x00
0x1ED4            0x00
0x1ED5            0x00
0x1ED6            0x00
0x1ED7            0x00
0x1ED8            0x00
0x1ED9            0x00
0x1EDA            0x00
0x1EDB            0x00
0x1EDC            0x00
0x1EDD            0x00
0x1EDE            0x00
0x1EDF            0x00
0x1EE0            0x00
0x1EE1            0x00
0x1EE2            0x00
0x1EE3            0x00
0x1EE4            0x00
0x1EE5            0x00
0x1EE6            0x00
0x1EE7            0x00
0x1EE8            0x00
0x1EE9            0x00
0x1EEA            0x00
0x1EEB            0x00
0x1EEC            0x00
0x1EED            0x00
0x1EEE            0x00
0x1EEF            0x00
0x1EF0            0x00
0x1EF1            0x00
0x1EF2            0x00
0x1EF3            0x00
0x1EF4            0x00
0x1EF5            0x00
0x1EF6            0x00
0x1EF7            0x00
0x1EF8            0x00
0x1EF9            0x00
0x1EFA            0x00
0x1EFB            0x00
0x1EFC            0x00
0x1EFD            0x00
0x1EFE            0x00
0x1EFF            0x00
0x1F00            0x00
0x1F01            0x00
0x1F02            0x00
0x1F03            0x00
0x1F04            0x00
0x1F05            0x00
0x1F06            0x00
0x1F07            0x00
0x1F08            0x00
0x1F09            0x00
0x1F0A            0x00
0x1F0B            0x00
0x1F0C            0x00
0x1F0D            0x00
0x1F0E            0x00
0x1F0F            0x00
0x1F10            0x00
0x1F11            0x00
0x1F12            0x00
0x1F13            0x00
0x1F14            0x00
0x1F15            0x00
0x1F16            0x00
0x1F17            0x00
0x1F18            0x00
0x1F19            0x00
0x1F1A            0x00
0x1F1B            0x00
0x1F1C            0x00
0x1F1D            0x00
0x1F1E            0x00
0x1F1F            0x00
0x1F20            0x00
0x1F21            0x00
0x1F22            0x00
0x1F23            0x00
0x1F24            0x00
0x1F25            0x00
0x1F26            0x00
0x1F27            0x00
0x1F28            0x00
0x1F29            0x00
0x1F2A            0x00
0x1F2B            0x00
0x1F2C            0x00
0x1F2D            0x00
0x1F2E            0x00
0x1F2F            0x00
0x1F30            0x00
0x1F31            0x00
0x1F32            0x00
0x1F33            0x00
0x1F34            0x00
0x1F35            0x00
0x1F36            0x00
0x1F37            0x00
0x1F38            0x00
0x1F39            0x00
0x1F3A            0x00
0x1F3B            0x00
0x1F3C            0x00
0x1F3D            0x00
0x1F3E            0x00
0x1F3F            0x00
0x1F40            0x00
0x1F41            0x00
0x1F42            0x00
0x1F43            0x00
0x1F44            0x00
0x1F45            0x00
0x1F46            0x00
0x1F47            0x00
0x1F48            0x00
0x1F49            0x00
0x1F4A            0x00
0x1F4B            0x00
0x1F4C            0x00
0x1F4D            0x00
0x1F4E            0x00
0x1F4F            0x00
0x1F50            0x00
0x1F51            0x00
0x1F52            0x00
0x1F53            0x00
0x1F54            0x00
0x1F55            0x00
0x1F56            0x00
0x1F57            0x00
0x1F58            0x00
0x1F59            0x00
0x1F5A            0x00
0x1F5B            0x00
0x1F5C            0x00
0x1F5D            0x00
0x1F5E            0x00
0x1F5F            0x00
0x1F60            0x00
0x1F61            0x00
0x1F62            0x00
0x1F63            0x00
0x1F64            0x00
0x1F65            0x00
0x1F66            0x00
0x1F67            0x00
0x1F68            0x00
0x1F69            0x00
0x1F6A            0x00
0x1F6B            0x00
0x1F6C            0x00
0x1F6D            0x00
0x1F6E            0x00
0x1F6F            0x00
0x1F70            0x00
0x1F71            0x00
0x1F72            0x00
0x1F73            0x00
0x1F74            0x00
0x1F75            0x00
0x1F76            0x00
0x1F77            0x00
0x1F78            0x00
0x1F79            0x00
0x1F7A            0x00
0x1F7B            0x00
0x1F7C            0x00
0x1F7D            0x00
0x1F7E            0x00
0x1F7F            0x00
0x1F80            0x00
0x1F81            0x00
0x1F82            0x00
0x1F83            0x00
0x1F84            0x00
0x1F85            0x00
0x1F86            0x00
0x1F87            0x00
0x1F88            0x00
0x1F89            0x00
0x1F8A            0x00
0x1F8B            0x00
0x1F8C            0x00
0x1F8D            0x00
0x1F8E            0x00
0x1F8F            0x00
0x1F90            0x00
0x1F91            0x00
0x1F92            0x00
0x1F93            0x00
0x1F94            0x00
0x1F95            0x00
0x1F96            0x00
0x1F97            0x00
0x1F98            0x00
0x1F99            0x00
0x1F9A            0x00
0x1F9B            0x00
0x1F9C            0x00
0x1F9D            0x00
0x1F9E            0x00
0x1F9F            0x00
0x1FA0            0x00
0x1FA1            0x00
0x1FA2            0x00
0x1FA3            0x00
0x1FA4            0x00
0x1FA5            0x00
0x1FA6            0x00
0x1FA7            0x00
0x1FA8            0x00
0x1FA9            0x00
0x1FAA            0x00
0x1FAB            0x00
0x1FAC            0x00
0x1FAD            0x00
0x1FAE            0x00
0x1FAF            0x00
0x1FB0            0x00
0x1FB1            0x00
0x1FB2            0x00
0x1FB3            0x00
0x1FB4            0x00
0x1FB5            0x00
0x1FB6            0x00
0x1FB7            0x00
0x1FB8            0x00
0x1FB9            0x00
0x1FBA            0x00
0x1FBB            0x00
0x1FBC            0x00
0x1FBD            0x00
0x1FBE            0x00
0x1FBF            0x00
0x1FC0            0x00
0x1FC1            0x00
0x1FC2            0x00
0x1FC3            0x00
0x1FC4            0x00
0x1FC5            0x00
0x1FC6            0x00
0x1FC7            0x00
0x1FC8            0x00
0x1FC9            0x00
0x1FCA            0x00
0x1FCB            0x00
0x1FCC            0x00
0x1FCD            0x00
0x1FCE            0x00
0x1FCF            0x00
0x1FD0            0x00
0x1FD1            0x00
0x1FD2            0x00
0x1FD3            0x00
0x1FD4            0x00
0x1FD5            0x00
0x1FD6            0x00
0x1FD7            0x00
0x1FD8            0x00
0x1FD9            0x00
0x1FDA            0x00
0x1FDB            0x00
0x1FDC            0x00
0x1FDD            0x00
0x1FDE            0x00
0x1FDF            0x00
0x1FE0            0x00
0x1FE1            0x00
0x1FE2            0x00
0x1FE3            0x00
0x1FE4            0x00
0x1FE5            0x00
0x1FE6            0x00
0x1FE7            0x00
0x1FE8            0x00
0x1FE9            0x00
0x1FEA            0x00
0x1FEB            0x00
0x1FEC            0x00
0x1FED            0x00
0x1FEE            0x00
0x1FEF            0x00
0x1FF0            0x00
0x1FF1            0x00
0x1FF2            0x00
0x1FF3            0x00
0x1FF4            0x00
0x1FF5            0x00
0x1FF6            0x00
0x1FF7            0x00
0x1FF8            0x00
0x1FF9            0x00
0x1FFA            0x00
0x1FFB            0x00
0x1FFC            0x00
0x1FFD            0x00
0x1FFE            0x00
0x1FFF            0x00
